ARM GAS  C:\Users\Thomas\AppData\Local\Temp\ccgueSla.s 			page 1


   1              		.syntax unified
   2              		.cpu cortex-m3
   3              		.fpu softvfp
   4              		.eabi_attribute 20, 1
   5              		.eabi_attribute 21, 1
   6              		.eabi_attribute 23, 3
   7              		.eabi_attribute 24, 1
   8              		.eabi_attribute 25, 1
   9              		.eabi_attribute 26, 1
  10              		.eabi_attribute 30, 1
  11              		.eabi_attribute 34, 1
  12              		.eabi_attribute 18, 4
  13              		.thumb
  14              		.file	"ADC_A.c"
  15              		.text
  16              	.Ltext0:
  17              		.cfi_sections	.debug_frame
  18              		.section	.text.ADC_A_CalcGain,"ax",%progbits
  19              		.align	2
  20              		.thumb
  21              		.thumb_func
  22              		.type	ADC_A_CalcGain, %function
  23              	ADC_A_CalcGain:
  24              	.LFB12:
  25              		.file 1 ".\\Generated_Source\\PSoC5\\ADC_A.c"
   1:.\Generated_Source\PSoC5/ADC_A.c **** /*******************************************************************************
   2:.\Generated_Source\PSoC5/ADC_A.c **** * File Name: ADC_A.c
   3:.\Generated_Source\PSoC5/ADC_A.c **** * Version 3.0
   4:.\Generated_Source\PSoC5/ADC_A.c **** *
   5:.\Generated_Source\PSoC5/ADC_A.c **** * Description:
   6:.\Generated_Source\PSoC5/ADC_A.c **** *  This file provides the source code to the API for the Successive
   7:.\Generated_Source\PSoC5/ADC_A.c **** *  approximation ADC Component.
   8:.\Generated_Source\PSoC5/ADC_A.c **** *
   9:.\Generated_Source\PSoC5/ADC_A.c **** * Note:
  10:.\Generated_Source\PSoC5/ADC_A.c **** *
  11:.\Generated_Source\PSoC5/ADC_A.c **** ********************************************************************************
  12:.\Generated_Source\PSoC5/ADC_A.c **** * Copyright 2008-2015, Cypress Semiconductor Corporation.  All rights reserved.
  13:.\Generated_Source\PSoC5/ADC_A.c **** * You may use this file only in accordance with the license, terms, conditions,
  14:.\Generated_Source\PSoC5/ADC_A.c **** * disclaimers, and limitations in the end user license agreement accompanying
  15:.\Generated_Source\PSoC5/ADC_A.c **** * the software package with which this file was provided.
  16:.\Generated_Source\PSoC5/ADC_A.c **** *******************************************************************************/
  17:.\Generated_Source\PSoC5/ADC_A.c **** 
  18:.\Generated_Source\PSoC5/ADC_A.c **** #include "CyLib.h"
  19:.\Generated_Source\PSoC5/ADC_A.c **** #include "ADC_A.h"
  20:.\Generated_Source\PSoC5/ADC_A.c **** 
  21:.\Generated_Source\PSoC5/ADC_A.c **** #if(ADC_A_DEFAULT_INTERNAL_CLK)
  22:.\Generated_Source\PSoC5/ADC_A.c ****     #include "ADC_A_theACLK.h"
  23:.\Generated_Source\PSoC5/ADC_A.c **** #endif /* End ADC_A_DEFAULT_INTERNAL_CLK */
  24:.\Generated_Source\PSoC5/ADC_A.c **** 
  25:.\Generated_Source\PSoC5/ADC_A.c **** 
  26:.\Generated_Source\PSoC5/ADC_A.c **** /***************************************
  27:.\Generated_Source\PSoC5/ADC_A.c **** * Forward function references
  28:.\Generated_Source\PSoC5/ADC_A.c **** ***************************************/
  29:.\Generated_Source\PSoC5/ADC_A.c **** static void ADC_A_CalcGain(uint8 resolution);
  30:.\Generated_Source\PSoC5/ADC_A.c **** 
  31:.\Generated_Source\PSoC5/ADC_A.c **** 
  32:.\Generated_Source\PSoC5/ADC_A.c **** /***************************************
ARM GAS  C:\Users\Thomas\AppData\Local\Temp\ccgueSla.s 			page 2


  33:.\Generated_Source\PSoC5/ADC_A.c **** * Global data allocation
  34:.\Generated_Source\PSoC5/ADC_A.c **** ***************************************/
  35:.\Generated_Source\PSoC5/ADC_A.c **** uint8 ADC_A_initVar = 0u;
  36:.\Generated_Source\PSoC5/ADC_A.c **** volatile int16 ADC_A_offset;
  37:.\Generated_Source\PSoC5/ADC_A.c **** volatile int16 ADC_A_countsPerVolt;     /* Obsolete Gain compensation */
  38:.\Generated_Source\PSoC5/ADC_A.c **** volatile int32 ADC_A_countsPer10Volt;   /* Gain compensation */
  39:.\Generated_Source\PSoC5/ADC_A.c **** volatile int16 ADC_A_shift;
  40:.\Generated_Source\PSoC5/ADC_A.c **** 
  41:.\Generated_Source\PSoC5/ADC_A.c **** 
  42:.\Generated_Source\PSoC5/ADC_A.c **** /*******************************************************************************
  43:.\Generated_Source\PSoC5/ADC_A.c **** * Function Name: ADC_A_Start
  44:.\Generated_Source\PSoC5/ADC_A.c **** ********************************************************************************
  45:.\Generated_Source\PSoC5/ADC_A.c **** *
  46:.\Generated_Source\PSoC5/ADC_A.c **** * Summary:
  47:.\Generated_Source\PSoC5/ADC_A.c **** *  This is the preferred method to begin component operation.
  48:.\Generated_Source\PSoC5/ADC_A.c **** *  ADC_A_Start() sets the initVar variable, calls the
  49:.\Generated_Source\PSoC5/ADC_A.c **** *  ADC_A_Init() function, and then calls the
  50:.\Generated_Source\PSoC5/ADC_A.c **** *  ADC_A_Enable() function.
  51:.\Generated_Source\PSoC5/ADC_A.c **** *
  52:.\Generated_Source\PSoC5/ADC_A.c **** * Parameters:
  53:.\Generated_Source\PSoC5/ADC_A.c **** *  None.
  54:.\Generated_Source\PSoC5/ADC_A.c **** *
  55:.\Generated_Source\PSoC5/ADC_A.c **** * Return:
  56:.\Generated_Source\PSoC5/ADC_A.c **** *  None.
  57:.\Generated_Source\PSoC5/ADC_A.c **** *
  58:.\Generated_Source\PSoC5/ADC_A.c **** * Global variables:
  59:.\Generated_Source\PSoC5/ADC_A.c **** *  The ADC_A_initVar variable is used to indicate when/if initial
  60:.\Generated_Source\PSoC5/ADC_A.c **** *  configuration of this component has happened. The variable is initialized to
  61:.\Generated_Source\PSoC5/ADC_A.c **** *  zero and set to 1 the first time ADC_Start() is called. This allows for
  62:.\Generated_Source\PSoC5/ADC_A.c **** *  component Re-Start without re-initialization in all subsequent calls to the
  63:.\Generated_Source\PSoC5/ADC_A.c **** *  ADC_A_Start() routine.
  64:.\Generated_Source\PSoC5/ADC_A.c **** *  If re-initialization of the component is required the variable should be set
  65:.\Generated_Source\PSoC5/ADC_A.c **** *  to zero before call of ADC_A_Start() routine, or the user may call
  66:.\Generated_Source\PSoC5/ADC_A.c **** *  ADC_A_Init() and ADC_A_Enable() as done in the
  67:.\Generated_Source\PSoC5/ADC_A.c **** *  ADC_A_Start() routine.
  68:.\Generated_Source\PSoC5/ADC_A.c **** *
  69:.\Generated_Source\PSoC5/ADC_A.c **** * Side Effect:
  70:.\Generated_Source\PSoC5/ADC_A.c **** *  If the initVar variable is already set, this function only calls the
  71:.\Generated_Source\PSoC5/ADC_A.c **** *  ADC_A_Enable() function.
  72:.\Generated_Source\PSoC5/ADC_A.c **** *
  73:.\Generated_Source\PSoC5/ADC_A.c **** *******************************************************************************/
  74:.\Generated_Source\PSoC5/ADC_A.c **** void ADC_A_Start(void)
  75:.\Generated_Source\PSoC5/ADC_A.c **** {
  76:.\Generated_Source\PSoC5/ADC_A.c **** 
  77:.\Generated_Source\PSoC5/ADC_A.c ****     /* If not Initialized then initialize all required hardware and software */
  78:.\Generated_Source\PSoC5/ADC_A.c ****     if(ADC_A_initVar == 0u)
  79:.\Generated_Source\PSoC5/ADC_A.c ****     {
  80:.\Generated_Source\PSoC5/ADC_A.c ****         ADC_A_Init();
  81:.\Generated_Source\PSoC5/ADC_A.c ****         ADC_A_initVar = 1u;
  82:.\Generated_Source\PSoC5/ADC_A.c ****     }
  83:.\Generated_Source\PSoC5/ADC_A.c ****     ADC_A_Enable();
  84:.\Generated_Source\PSoC5/ADC_A.c **** }
  85:.\Generated_Source\PSoC5/ADC_A.c **** 
  86:.\Generated_Source\PSoC5/ADC_A.c **** 
  87:.\Generated_Source\PSoC5/ADC_A.c **** /*******************************************************************************
  88:.\Generated_Source\PSoC5/ADC_A.c **** * Function Name: ADC_A_Init
  89:.\Generated_Source\PSoC5/ADC_A.c **** ********************************************************************************
ARM GAS  C:\Users\Thomas\AppData\Local\Temp\ccgueSla.s 			page 3


  90:.\Generated_Source\PSoC5/ADC_A.c **** *
  91:.\Generated_Source\PSoC5/ADC_A.c **** * Summary:
  92:.\Generated_Source\PSoC5/ADC_A.c **** *  Initialize component's parameters to the parameters set by user in the
  93:.\Generated_Source\PSoC5/ADC_A.c **** *  customizer of the component placed onto schematic. Usually called in
  94:.\Generated_Source\PSoC5/ADC_A.c **** *  ADC_A_Start().
  95:.\Generated_Source\PSoC5/ADC_A.c **** *
  96:.\Generated_Source\PSoC5/ADC_A.c **** * Parameters:
  97:.\Generated_Source\PSoC5/ADC_A.c **** *  None.
  98:.\Generated_Source\PSoC5/ADC_A.c **** *
  99:.\Generated_Source\PSoC5/ADC_A.c **** * Return:
 100:.\Generated_Source\PSoC5/ADC_A.c **** *  None.
 101:.\Generated_Source\PSoC5/ADC_A.c **** *
 102:.\Generated_Source\PSoC5/ADC_A.c **** * Global variables:
 103:.\Generated_Source\PSoC5/ADC_A.c **** *  The ADC_A_offset variable is initialized to 0.
 104:.\Generated_Source\PSoC5/ADC_A.c **** *
 105:.\Generated_Source\PSoC5/ADC_A.c **** *******************************************************************************/
 106:.\Generated_Source\PSoC5/ADC_A.c **** void ADC_A_Init(void)
 107:.\Generated_Source\PSoC5/ADC_A.c **** {
 108:.\Generated_Source\PSoC5/ADC_A.c **** 
 109:.\Generated_Source\PSoC5/ADC_A.c ****     /* This is only valid if there is an internal clock */
 110:.\Generated_Source\PSoC5/ADC_A.c ****     #if(ADC_A_DEFAULT_INTERNAL_CLK)
 111:.\Generated_Source\PSoC5/ADC_A.c ****         ADC_A_theACLK_SetMode(CYCLK_DUTY);
 112:.\Generated_Source\PSoC5/ADC_A.c ****     #endif /* End ADC_A_DEFAULT_INTERNAL_CLK */
 113:.\Generated_Source\PSoC5/ADC_A.c **** 
 114:.\Generated_Source\PSoC5/ADC_A.c ****     #if(ADC_A_IRQ_REMOVE == 0u)
 115:.\Generated_Source\PSoC5/ADC_A.c ****         /* Start and set interrupt vector */
 116:.\Generated_Source\PSoC5/ADC_A.c ****         CyIntSetPriority(ADC_A_INTC_NUMBER, ADC_A_INTC_PRIOR_NUMBER);
 117:.\Generated_Source\PSoC5/ADC_A.c ****         (void)CyIntSetVector(ADC_A_INTC_NUMBER, &ADC_A_ISR);
 118:.\Generated_Source\PSoC5/ADC_A.c ****     #endif   /* End ADC_A_IRQ_REMOVE */
 119:.\Generated_Source\PSoC5/ADC_A.c **** 
 120:.\Generated_Source\PSoC5/ADC_A.c ****     /* Enable IRQ mode*/
 121:.\Generated_Source\PSoC5/ADC_A.c ****     ADC_A_SAR_CSR1_REG |= ADC_A_SAR_IRQ_MASK_EN | ADC_A_SAR_IRQ_MODE_EDGE;
 122:.\Generated_Source\PSoC5/ADC_A.c **** 
 123:.\Generated_Source\PSoC5/ADC_A.c ****     /*Set SAR ADC resolution ADC */
 124:.\Generated_Source\PSoC5/ADC_A.c ****     ADC_A_SetResolution(ADC_A_DEFAULT_RESOLUTION);
 125:.\Generated_Source\PSoC5/ADC_A.c ****     ADC_A_offset = 0;
 126:.\Generated_Source\PSoC5/ADC_A.c **** }
 127:.\Generated_Source\PSoC5/ADC_A.c **** 
 128:.\Generated_Source\PSoC5/ADC_A.c **** 
 129:.\Generated_Source\PSoC5/ADC_A.c **** /*******************************************************************************
 130:.\Generated_Source\PSoC5/ADC_A.c **** * Function Name: ADC_A_Enable
 131:.\Generated_Source\PSoC5/ADC_A.c **** ********************************************************************************
 132:.\Generated_Source\PSoC5/ADC_A.c **** *
 133:.\Generated_Source\PSoC5/ADC_A.c **** * Summary:
 134:.\Generated_Source\PSoC5/ADC_A.c **** *  Enables the reference, clock and power for SAR ADC.
 135:.\Generated_Source\PSoC5/ADC_A.c **** *
 136:.\Generated_Source\PSoC5/ADC_A.c **** * Parameters:
 137:.\Generated_Source\PSoC5/ADC_A.c **** *  None.
 138:.\Generated_Source\PSoC5/ADC_A.c **** *
 139:.\Generated_Source\PSoC5/ADC_A.c **** * Return:
 140:.\Generated_Source\PSoC5/ADC_A.c **** *  None.
 141:.\Generated_Source\PSoC5/ADC_A.c **** *
 142:.\Generated_Source\PSoC5/ADC_A.c **** *******************************************************************************/
 143:.\Generated_Source\PSoC5/ADC_A.c **** void ADC_A_Enable(void)
 144:.\Generated_Source\PSoC5/ADC_A.c **** {
 145:.\Generated_Source\PSoC5/ADC_A.c ****     uint8 tmpReg;
 146:.\Generated_Source\PSoC5/ADC_A.c ****     uint8 enableInterrupts;
ARM GAS  C:\Users\Thomas\AppData\Local\Temp\ccgueSla.s 			page 4


 147:.\Generated_Source\PSoC5/ADC_A.c ****     enableInterrupts = CyEnterCriticalSection();
 148:.\Generated_Source\PSoC5/ADC_A.c **** 
 149:.\Generated_Source\PSoC5/ADC_A.c ****     /* Enable the SAR ADC block in Active Power Mode */
 150:.\Generated_Source\PSoC5/ADC_A.c ****     ADC_A_PWRMGR_SAR_REG |= ADC_A_ACT_PWR_SAR_EN;
 151:.\Generated_Source\PSoC5/ADC_A.c **** 
 152:.\Generated_Source\PSoC5/ADC_A.c ****      /* Enable the SAR ADC in Standby Power Mode*/
 153:.\Generated_Source\PSoC5/ADC_A.c ****     ADC_A_STBY_PWRMGR_SAR_REG |= ADC_A_STBY_PWR_SAR_EN;
 154:.\Generated_Source\PSoC5/ADC_A.c **** 
 155:.\Generated_Source\PSoC5/ADC_A.c ****     /* This is only valid if there is an internal clock */
 156:.\Generated_Source\PSoC5/ADC_A.c ****     #if(ADC_A_DEFAULT_INTERNAL_CLK)
 157:.\Generated_Source\PSoC5/ADC_A.c ****         ADC_A_PWRMGR_CLK_REG |= ADC_A_ACT_PWR_CLK_EN;
 158:.\Generated_Source\PSoC5/ADC_A.c ****         ADC_A_STBY_PWRMGR_CLK_REG |= ADC_A_STBY_PWR_CLK_EN;
 159:.\Generated_Source\PSoC5/ADC_A.c ****     #endif /* End ADC_A_DEFAULT_INTERNAL_CLK */
 160:.\Generated_Source\PSoC5/ADC_A.c **** 
 161:.\Generated_Source\PSoC5/ADC_A.c ****     /* Enable VCM buffer and Enable Int Ref Amp */
 162:.\Generated_Source\PSoC5/ADC_A.c ****     tmpReg = ADC_A_SAR_CSR3_REG;
 163:.\Generated_Source\PSoC5/ADC_A.c ****     tmpReg |= ADC_A_SAR_EN_BUF_VCM_EN;
 164:.\Generated_Source\PSoC5/ADC_A.c ****     /* PD_BUF_VREF is OFF in External reference or Vdda reference mode */
 165:.\Generated_Source\PSoC5/ADC_A.c ****     #if((ADC_A_DEFAULT_REFERENCE == ADC_A__EXT_REF) || \
 166:.\Generated_Source\PSoC5/ADC_A.c ****         (ADC_A_DEFAULT_RANGE == ADC_A__VNEG_VDDA_DIFF))
 167:.\Generated_Source\PSoC5/ADC_A.c ****         tmpReg &= (uint8)~ADC_A_SAR_EN_BUF_VREF_EN;
 168:.\Generated_Source\PSoC5/ADC_A.c ****     #else /* In INTREF or INTREF Bypassed this buffer is ON */
 169:.\Generated_Source\PSoC5/ADC_A.c ****         tmpReg |= ADC_A_SAR_EN_BUF_VREF_EN;
 170:.\Generated_Source\PSoC5/ADC_A.c ****     #endif /* ADC_A_DEFAULT_REFERENCE == ADC_A__EXT_REF */
 171:.\Generated_Source\PSoC5/ADC_A.c ****     ADC_A_SAR_CSR3_REG = tmpReg;
 172:.\Generated_Source\PSoC5/ADC_A.c **** 
 173:.\Generated_Source\PSoC5/ADC_A.c ****     /* Set reference for ADC */
 174:.\Generated_Source\PSoC5/ADC_A.c ****     #if(ADC_A_DEFAULT_RANGE == ADC_A__VNEG_VDDA_DIFF)
 175:.\Generated_Source\PSoC5/ADC_A.c ****         #if(ADC_A_DEFAULT_REFERENCE == ADC_A__EXT_REF)
 176:.\Generated_Source\PSoC5/ADC_A.c ****             ADC_A_SAR_CSR6_REG = ADC_A_INT_BYPASS_EXT_VREF; /* S2 */
 177:.\Generated_Source\PSoC5/ADC_A.c ****         #else /* Internal Vdda reference or obsolete bypass mode */
 178:.\Generated_Source\PSoC5/ADC_A.c ****             ADC_A_SAR_CSR6_REG = ADC_A_VDDA_VREF;           /* S7 */
 179:.\Generated_Source\PSoC5/ADC_A.c ****         #endif /* ADC_A_DEFAULT_REFERENCE == ADC_A__EXT_REF */
 180:.\Generated_Source\PSoC5/ADC_A.c ****     #else  /* Reference goes through internal buffer */
 181:.\Generated_Source\PSoC5/ADC_A.c ****         #if(ADC_A_DEFAULT_REFERENCE == ADC_A__INT_REF_NOT_BYPASSED)
 182:.\Generated_Source\PSoC5/ADC_A.c ****             ADC_A_SAR_CSR6_REG = ADC_A_INT_VREF;            /* S3 + S4 */
 183:.\Generated_Source\PSoC5/ADC_A.c ****         #else /* INTREF Bypassed of External */
 184:.\Generated_Source\PSoC5/ADC_A.c ****             ADC_A_SAR_CSR6_REG = ADC_A_INT_BYPASS_EXT_VREF; /* S2 */
 185:.\Generated_Source\PSoC5/ADC_A.c ****         #endif /* ADC_A_DEFAULT_REFERENCE == ADC_A__INT_REF_NOT_BYPASSED */
 186:.\Generated_Source\PSoC5/ADC_A.c ****     #endif /* VNEG_VDDA_DIFF */
 187:.\Generated_Source\PSoC5/ADC_A.c **** 
 188:.\Generated_Source\PSoC5/ADC_A.c ****     /* Low non-overlap delay for sampling clock signals (for 1MSPS) */
 189:.\Generated_Source\PSoC5/ADC_A.c ****     #if(ADC_A_HIGH_POWER_PULSE == 0u) /* MinPulseWidth <= 50 ns */
 190:.\Generated_Source\PSoC5/ADC_A.c ****         ADC_A_SAR_CSR5_REG &= (uint8)~ADC_A_SAR_DLY_INC;
 191:.\Generated_Source\PSoC5/ADC_A.c ****     #else /* Set High non-overlap delay for sampling clock signals (for <500KSPS)*/
 192:.\Generated_Source\PSoC5/ADC_A.c ****         ADC_A_SAR_CSR5_REG |= ADC_A_SAR_DLY_INC;
 193:.\Generated_Source\PSoC5/ADC_A.c ****     #endif /* ADC_A_HIGH_POWER_PULSE == 0u */
 194:.\Generated_Source\PSoC5/ADC_A.c **** 
 195:.\Generated_Source\PSoC5/ADC_A.c ****     /* Increase comparator latch enable delay by 20%, 
 196:.\Generated_Source\PSoC5/ADC_A.c ****     *  Increase comparator bias current by 30% without impacting delaysDelay 
 197:.\Generated_Source\PSoC5/ADC_A.c ****     *  Default for 1MSPS) 
 198:.\Generated_Source\PSoC5/ADC_A.c ****     */
 199:.\Generated_Source\PSoC5/ADC_A.c ****     #if(ADC_A_HIGH_POWER_PULSE == 0u)    /* MinPulseWidth <= 50 ns */
 200:.\Generated_Source\PSoC5/ADC_A.c ****         ADC_A_SAR_CSR5_REG |= ADC_A_SAR_SEL_CSEL_DFT_CHAR;
 201:.\Generated_Source\PSoC5/ADC_A.c ****     #else /* for <500ksps */
 202:.\Generated_Source\PSoC5/ADC_A.c ****         ADC_A_SAR_CSR5_REG &= (uint8)~ADC_A_SAR_SEL_CSEL_DFT_CHAR;
 203:.\Generated_Source\PSoC5/ADC_A.c ****     #endif /* ADC_A_HIGH_POWER_PULSE == 0u */
ARM GAS  C:\Users\Thomas\AppData\Local\Temp\ccgueSla.s 			page 5


 204:.\Generated_Source\PSoC5/ADC_A.c **** 
 205:.\Generated_Source\PSoC5/ADC_A.c ****     /* Set default power and other configurations for control register 0 in multiple lines */
 206:.\Generated_Source\PSoC5/ADC_A.c ****     ADC_A_SAR_CSR0_REG = (uint8)((uint8)ADC_A_DEFAULT_POWER << ADC_A_SAR_POWER_SHIFT)
 207:.\Generated_Source\PSoC5/ADC_A.c ****     /* SAR_HIZ_CLEAR:   Should not be used for LP */
 208:.\Generated_Source\PSoC5/ADC_A.c ****     #if ((CY_PSOC5LP) || (ADC_A_DEFAULT_REFERENCE != ADC_A__EXT_REF))
 209:.\Generated_Source\PSoC5/ADC_A.c ****         | ADC_A_SAR_HIZ_CLEAR
 210:.\Generated_Source\PSoC5/ADC_A.c ****     #endif /* SAR_HIZ_CLEAR */
 211:.\Generated_Source\PSoC5/ADC_A.c ****     /*Set Convertion mode */
 212:.\Generated_Source\PSoC5/ADC_A.c ****     #if(ADC_A_DEFAULT_CONV_MODE != ADC_A__FREE_RUNNING)      /* If triggered mode */
 213:.\Generated_Source\PSoC5/ADC_A.c ****         | ADC_A_SAR_MX_SOF_UDB           /* source: UDB */
 214:.\Generated_Source\PSoC5/ADC_A.c ****         | ADC_A_SAR_SOF_MODE_EDGE        /* Set edge-sensitive sof source */
 215:.\Generated_Source\PSoC5/ADC_A.c ****     #endif /* ADC_A_DEFAULT_CONV_MODE */
 216:.\Generated_Source\PSoC5/ADC_A.c ****     ; /* end of multiple line initialization */
 217:.\Generated_Source\PSoC5/ADC_A.c **** 
 218:.\Generated_Source\PSoC5/ADC_A.c ****     ADC_A_SAR_TR0_REG = ADC_A_SAR_CAP_TRIM_2;
 219:.\Generated_Source\PSoC5/ADC_A.c **** 
 220:.\Generated_Source\PSoC5/ADC_A.c ****     /* Enable clock for SAR ADC*/
 221:.\Generated_Source\PSoC5/ADC_A.c ****     ADC_A_SAR_CLK_REG |= ADC_A_SAR_MX_CLK_EN;
 222:.\Generated_Source\PSoC5/ADC_A.c **** 
 223:.\Generated_Source\PSoC5/ADC_A.c ****     CyDelayUs(10u); /* The block is ready to use 10 us after the enable signal is set high. */
 224:.\Generated_Source\PSoC5/ADC_A.c **** 
 225:.\Generated_Source\PSoC5/ADC_A.c ****     #if(ADC_A_IRQ_REMOVE == 0u)
 226:.\Generated_Source\PSoC5/ADC_A.c ****         /* Clear a pending interrupt */
 227:.\Generated_Source\PSoC5/ADC_A.c ****         CyIntClearPending(ADC_A_INTC_NUMBER);
 228:.\Generated_Source\PSoC5/ADC_A.c ****     #endif   /* End ADC_A_IRQ_REMOVE */
 229:.\Generated_Source\PSoC5/ADC_A.c **** 
 230:.\Generated_Source\PSoC5/ADC_A.c ****     CyExitCriticalSection(enableInterrupts);
 231:.\Generated_Source\PSoC5/ADC_A.c **** }
 232:.\Generated_Source\PSoC5/ADC_A.c **** 
 233:.\Generated_Source\PSoC5/ADC_A.c **** 
 234:.\Generated_Source\PSoC5/ADC_A.c **** /*******************************************************************************
 235:.\Generated_Source\PSoC5/ADC_A.c **** * Function Name: ADC_A_Stop
 236:.\Generated_Source\PSoC5/ADC_A.c **** ********************************************************************************
 237:.\Generated_Source\PSoC5/ADC_A.c **** *
 238:.\Generated_Source\PSoC5/ADC_A.c **** * Summary:
 239:.\Generated_Source\PSoC5/ADC_A.c **** *  Stops ADC conversions and puts the ADC into its lowest power mode.
 240:.\Generated_Source\PSoC5/ADC_A.c **** *
 241:.\Generated_Source\PSoC5/ADC_A.c **** * Parameters:
 242:.\Generated_Source\PSoC5/ADC_A.c **** *  None.
 243:.\Generated_Source\PSoC5/ADC_A.c **** *
 244:.\Generated_Source\PSoC5/ADC_A.c **** * Return:
 245:.\Generated_Source\PSoC5/ADC_A.c **** *  None.
 246:.\Generated_Source\PSoC5/ADC_A.c **** *
 247:.\Generated_Source\PSoC5/ADC_A.c **** *******************************************************************************/
 248:.\Generated_Source\PSoC5/ADC_A.c **** void ADC_A_Stop(void)
 249:.\Generated_Source\PSoC5/ADC_A.c **** {
 250:.\Generated_Source\PSoC5/ADC_A.c ****     uint8 enableInterrupts;
 251:.\Generated_Source\PSoC5/ADC_A.c ****     enableInterrupts = CyEnterCriticalSection();
 252:.\Generated_Source\PSoC5/ADC_A.c **** 
 253:.\Generated_Source\PSoC5/ADC_A.c ****     /* Stop all conversions */
 254:.\Generated_Source\PSoC5/ADC_A.c ****     ADC_A_SAR_CSR0_REG &= (uint8)~ADC_A_SAR_SOF_START_CONV;
 255:.\Generated_Source\PSoC5/ADC_A.c ****     /* Disable the SAR ADC block in Active Power Mode */
 256:.\Generated_Source\PSoC5/ADC_A.c ****     ADC_A_PWRMGR_SAR_REG &= (uint8)~ADC_A_ACT_PWR_SAR_EN;
 257:.\Generated_Source\PSoC5/ADC_A.c ****     /* Disable the SAR ADC in Standby Power Mode */
 258:.\Generated_Source\PSoC5/ADC_A.c ****     ADC_A_STBY_PWRMGR_SAR_REG &= (uint8)~ADC_A_STBY_PWR_SAR_EN;
 259:.\Generated_Source\PSoC5/ADC_A.c **** 
 260:.\Generated_Source\PSoC5/ADC_A.c ****     /* This is only valid if there is an internal clock */
ARM GAS  C:\Users\Thomas\AppData\Local\Temp\ccgueSla.s 			page 6


 261:.\Generated_Source\PSoC5/ADC_A.c ****     #if(ADC_A_DEFAULT_INTERNAL_CLK)
 262:.\Generated_Source\PSoC5/ADC_A.c ****         ADC_A_PWRMGR_CLK_REG &= (uint8)~ADC_A_ACT_PWR_CLK_EN;
 263:.\Generated_Source\PSoC5/ADC_A.c ****         ADC_A_STBY_PWRMGR_CLK_REG &= (uint8)~ADC_A_STBY_PWR_CLK_EN;
 264:.\Generated_Source\PSoC5/ADC_A.c ****     #endif /* End ADC_A_DEFAULT_INTERNAL_CLK */
 265:.\Generated_Source\PSoC5/ADC_A.c **** 
 266:.\Generated_Source\PSoC5/ADC_A.c ****     CyExitCriticalSection(enableInterrupts);
 267:.\Generated_Source\PSoC5/ADC_A.c **** 
 268:.\Generated_Source\PSoC5/ADC_A.c **** }
 269:.\Generated_Source\PSoC5/ADC_A.c **** 
 270:.\Generated_Source\PSoC5/ADC_A.c **** 
 271:.\Generated_Source\PSoC5/ADC_A.c **** /*******************************************************************************
 272:.\Generated_Source\PSoC5/ADC_A.c **** * Function Name: ADC_A_SetPower
 273:.\Generated_Source\PSoC5/ADC_A.c **** ********************************************************************************
 274:.\Generated_Source\PSoC5/ADC_A.c **** *
 275:.\Generated_Source\PSoC5/ADC_A.c **** * Summary:
 276:.\Generated_Source\PSoC5/ADC_A.c **** *  Sets the operational power of the ADC. You should use the higher power
 277:.\Generated_Source\PSoC5/ADC_A.c **** *  settings with faster clock speeds.
 278:.\Generated_Source\PSoC5/ADC_A.c **** *
 279:.\Generated_Source\PSoC5/ADC_A.c **** * Parameters:
 280:.\Generated_Source\PSoC5/ADC_A.c **** *  power:  Power setting for ADC
 281:.\Generated_Source\PSoC5/ADC_A.c **** *  0 ->    Normal
 282:.\Generated_Source\PSoC5/ADC_A.c **** *  1 ->    Medium power
 283:.\Generated_Source\PSoC5/ADC_A.c **** *  2 ->    1.25 power
 284:.\Generated_Source\PSoC5/ADC_A.c **** *  3 ->    Minimum power.
 285:.\Generated_Source\PSoC5/ADC_A.c **** *
 286:.\Generated_Source\PSoC5/ADC_A.c **** * Return:
 287:.\Generated_Source\PSoC5/ADC_A.c **** *  None.
 288:.\Generated_Source\PSoC5/ADC_A.c **** *
 289:.\Generated_Source\PSoC5/ADC_A.c **** *******************************************************************************/
 290:.\Generated_Source\PSoC5/ADC_A.c **** void ADC_A_SetPower(uint8 power)
 291:.\Generated_Source\PSoC5/ADC_A.c **** {
 292:.\Generated_Source\PSoC5/ADC_A.c ****     uint8 tmpReg;
 293:.\Generated_Source\PSoC5/ADC_A.c **** 
 294:.\Generated_Source\PSoC5/ADC_A.c ****     /* mask off invalid power settings */
 295:.\Generated_Source\PSoC5/ADC_A.c ****     power &= ADC_A_SAR_API_POWER_MASK;
 296:.\Generated_Source\PSoC5/ADC_A.c **** 
 297:.\Generated_Source\PSoC5/ADC_A.c ****     /* Set Power parameter  */
 298:.\Generated_Source\PSoC5/ADC_A.c ****     tmpReg = ADC_A_SAR_CSR0_REG & (uint8)~ADC_A_SAR_POWER_MASK;
 299:.\Generated_Source\PSoC5/ADC_A.c ****     tmpReg |= (uint8)(power << ADC_A_SAR_POWER_SHIFT);
 300:.\Generated_Source\PSoC5/ADC_A.c ****     ADC_A_SAR_CSR0_REG = tmpReg;
 301:.\Generated_Source\PSoC5/ADC_A.c **** }
 302:.\Generated_Source\PSoC5/ADC_A.c **** 
 303:.\Generated_Source\PSoC5/ADC_A.c **** 
 304:.\Generated_Source\PSoC5/ADC_A.c **** /*******************************************************************************
 305:.\Generated_Source\PSoC5/ADC_A.c **** * Function Name: ADC_A_SetResolution
 306:.\Generated_Source\PSoC5/ADC_A.c **** ********************************************************************************
 307:.\Generated_Source\PSoC5/ADC_A.c **** *
 308:.\Generated_Source\PSoC5/ADC_A.c **** * Summary:
 309:.\Generated_Source\PSoC5/ADC_A.c **** *  Sets the Relution of the SAR.
 310:.\Generated_Source\PSoC5/ADC_A.c **** *
 311:.\Generated_Source\PSoC5/ADC_A.c **** * Parameters:
 312:.\Generated_Source\PSoC5/ADC_A.c **** *  resolution:
 313:.\Generated_Source\PSoC5/ADC_A.c **** *  12 ->    RES12
 314:.\Generated_Source\PSoC5/ADC_A.c **** *  10 ->    RES10
 315:.\Generated_Source\PSoC5/ADC_A.c **** *  8  ->    RES8
 316:.\Generated_Source\PSoC5/ADC_A.c **** *
 317:.\Generated_Source\PSoC5/ADC_A.c **** * Return:
ARM GAS  C:\Users\Thomas\AppData\Local\Temp\ccgueSla.s 			page 7


 318:.\Generated_Source\PSoC5/ADC_A.c **** *  None.
 319:.\Generated_Source\PSoC5/ADC_A.c **** *
 320:.\Generated_Source\PSoC5/ADC_A.c **** * Side Effects:
 321:.\Generated_Source\PSoC5/ADC_A.c **** *  The ADC resolution cannot be changed during a conversion cycle. The
 322:.\Generated_Source\PSoC5/ADC_A.c **** *  recommended best practice is to stop conversions with
 323:.\Generated_Source\PSoC5/ADC_A.c **** *  ADC_StopConvert(), change the resolution, then restart the
 324:.\Generated_Source\PSoC5/ADC_A.c **** *  conversions with ADC_StartConvert().
 325:.\Generated_Source\PSoC5/ADC_A.c **** *  If you decide not to stop conversions before calling this API, you
 326:.\Generated_Source\PSoC5/ADC_A.c **** *  should use ADC_IsEndConversion() to wait until conversion is complete
 327:.\Generated_Source\PSoC5/ADC_A.c **** *  before changing the resolution.
 328:.\Generated_Source\PSoC5/ADC_A.c **** *  If you call ADC_SetResolution() during a conversion, the resolution will
 329:.\Generated_Source\PSoC5/ADC_A.c **** *  not be changed until the current conversion is complete. Data will not be
 330:.\Generated_Source\PSoC5/ADC_A.c **** *  available in the new resolution for another 6 + "New Resolution(in bits)"
 331:.\Generated_Source\PSoC5/ADC_A.c **** *  clock cycles.
 332:.\Generated_Source\PSoC5/ADC_A.c **** *  You may need add a delay of this number of clock cycles after
 333:.\Generated_Source\PSoC5/ADC_A.c **** *  ADC_SetResolution() is called before data is valid again.
 334:.\Generated_Source\PSoC5/ADC_A.c **** *  Affects ADC_CountsTo_Volts(), ADC_CountsTo_mVolts(), and
 335:.\Generated_Source\PSoC5/ADC_A.c **** *  ADC_CountsTo_uVolts() by calculating the correct conversion between ADC
 336:.\Generated_Source\PSoC5/ADC_A.c **** *  counts and the applied input voltage. Calculation depends on resolution,
 337:.\Generated_Source\PSoC5/ADC_A.c **** *  input range, and voltage reference.
 338:.\Generated_Source\PSoC5/ADC_A.c **** *
 339:.\Generated_Source\PSoC5/ADC_A.c **** *******************************************************************************/
 340:.\Generated_Source\PSoC5/ADC_A.c **** void ADC_A_SetResolution(uint8 resolution)
 341:.\Generated_Source\PSoC5/ADC_A.c **** {
 342:.\Generated_Source\PSoC5/ADC_A.c ****     uint8 tmpReg;
 343:.\Generated_Source\PSoC5/ADC_A.c **** 
 344:.\Generated_Source\PSoC5/ADC_A.c ****     /* Set SAR ADC resolution and sample width: 18 conversion cycles at 12bits + 1 gap */
 345:.\Generated_Source\PSoC5/ADC_A.c ****     switch (resolution)
 346:.\Generated_Source\PSoC5/ADC_A.c ****     {
 347:.\Generated_Source\PSoC5/ADC_A.c ****         case (uint8)ADC_A__BITS_12:
 348:.\Generated_Source\PSoC5/ADC_A.c ****             tmpReg = ADC_A_SAR_RESOLUTION_12BIT | ADC_A_SAR_SAMPLE_WIDTH;
 349:.\Generated_Source\PSoC5/ADC_A.c ****             break;
 350:.\Generated_Source\PSoC5/ADC_A.c ****         case (uint8)ADC_A__BITS_10:
 351:.\Generated_Source\PSoC5/ADC_A.c ****             tmpReg = ADC_A_SAR_RESOLUTION_10BIT | ADC_A_SAR_SAMPLE_WIDTH;
 352:.\Generated_Source\PSoC5/ADC_A.c ****             break;
 353:.\Generated_Source\PSoC5/ADC_A.c ****         case (uint8)ADC_A__BITS_8:
 354:.\Generated_Source\PSoC5/ADC_A.c ****             tmpReg = ADC_A_SAR_RESOLUTION_8BIT | ADC_A_SAR_SAMPLE_WIDTH;
 355:.\Generated_Source\PSoC5/ADC_A.c ****             break;
 356:.\Generated_Source\PSoC5/ADC_A.c ****         default:
 357:.\Generated_Source\PSoC5/ADC_A.c ****             tmpReg = ADC_A_SAR_RESOLUTION_12BIT | ADC_A_SAR_SAMPLE_WIDTH;
 358:.\Generated_Source\PSoC5/ADC_A.c ****             /* Halt CPU in debug mode if resolution is out of valid range */
 359:.\Generated_Source\PSoC5/ADC_A.c ****             CYASSERT(0u != 0u);
 360:.\Generated_Source\PSoC5/ADC_A.c ****             break;
 361:.\Generated_Source\PSoC5/ADC_A.c ****     }
 362:.\Generated_Source\PSoC5/ADC_A.c ****     ADC_A_SAR_CSR2_REG = tmpReg;
 363:.\Generated_Source\PSoC5/ADC_A.c **** 
 364:.\Generated_Source\PSoC5/ADC_A.c ****      /* Calculate gain for convert counts to volts */
 365:.\Generated_Source\PSoC5/ADC_A.c ****     ADC_A_CalcGain(resolution);
 366:.\Generated_Source\PSoC5/ADC_A.c **** }
 367:.\Generated_Source\PSoC5/ADC_A.c **** 
 368:.\Generated_Source\PSoC5/ADC_A.c **** 
 369:.\Generated_Source\PSoC5/ADC_A.c **** #if(ADC_A_DEFAULT_CONV_MODE != ADC_A__HARDWARE_TRIGGER)
 370:.\Generated_Source\PSoC5/ADC_A.c **** 
 371:.\Generated_Source\PSoC5/ADC_A.c **** 
 372:.\Generated_Source\PSoC5/ADC_A.c ****     /*******************************************************************************
 373:.\Generated_Source\PSoC5/ADC_A.c ****     * Function Name: ADC_A_StartConvert
 374:.\Generated_Source\PSoC5/ADC_A.c ****     ********************************************************************************
ARM GAS  C:\Users\Thomas\AppData\Local\Temp\ccgueSla.s 			page 8


 375:.\Generated_Source\PSoC5/ADC_A.c ****     *
 376:.\Generated_Source\PSoC5/ADC_A.c ****     * Summary:
 377:.\Generated_Source\PSoC5/ADC_A.c ****     *  Forces the ADC to initiate a conversion. In free-running mode, the ADC runs
 378:.\Generated_Source\PSoC5/ADC_A.c ****     *  continuously. In software trigger mode, the function also acts as a software
 379:.\Generated_Source\PSoC5/ADC_A.c ****     *  version of the SOC and every conversion must be triggered by
 380:.\Generated_Source\PSoC5/ADC_A.c ****     *  ADC_A_StartConvert(). This function is not available when the
 381:.\Generated_Source\PSoC5/ADC_A.c ****     *  Hardware Trigger sample mode is selected.
 382:.\Generated_Source\PSoC5/ADC_A.c ****     *
 383:.\Generated_Source\PSoC5/ADC_A.c ****     * Parameters:
 384:.\Generated_Source\PSoC5/ADC_A.c ****     *  None.
 385:.\Generated_Source\PSoC5/ADC_A.c ****     *
 386:.\Generated_Source\PSoC5/ADC_A.c ****     * Return:
 387:.\Generated_Source\PSoC5/ADC_A.c ****     *  None.
 388:.\Generated_Source\PSoC5/ADC_A.c ****     *
 389:.\Generated_Source\PSoC5/ADC_A.c ****     * Theory:
 390:.\Generated_Source\PSoC5/ADC_A.c ****     *  Forces the ADC to initiate a conversion. In Free Running mode, the ADC will
 391:.\Generated_Source\PSoC5/ADC_A.c ****     *  run continuously. In a software trigger mode the function also acts as a
 392:.\Generated_Source\PSoC5/ADC_A.c ****     *  software version of the SOC. Here every conversion has to be triggered by
 393:.\Generated_Source\PSoC5/ADC_A.c ****     *  the routine. This writes into the SOC bit in SAR_CTRL reg.
 394:.\Generated_Source\PSoC5/ADC_A.c ****     *
 395:.\Generated_Source\PSoC5/ADC_A.c ****     * Side Effects:
 396:.\Generated_Source\PSoC5/ADC_A.c ****     *  In a software trigger mode the function switches source for SOF from the
 397:.\Generated_Source\PSoC5/ADC_A.c ****     *  external pin to the internal SOF generation. Application should not call
 398:.\Generated_Source\PSoC5/ADC_A.c ****     *  StartConvert if external source used for SOF.
 399:.\Generated_Source\PSoC5/ADC_A.c ****     *
 400:.\Generated_Source\PSoC5/ADC_A.c ****     *******************************************************************************/
 401:.\Generated_Source\PSoC5/ADC_A.c ****     void ADC_A_StartConvert(void)
 402:.\Generated_Source\PSoC5/ADC_A.c ****     {
 403:.\Generated_Source\PSoC5/ADC_A.c ****         #if(ADC_A_DEFAULT_CONV_MODE != ADC_A__FREE_RUNNING)  /* If software triggered mode */
 404:.\Generated_Source\PSoC5/ADC_A.c ****             ADC_A_SAR_CSR0_REG &= (uint8)~ADC_A_SAR_MX_SOF_UDB;   /* source: SOF bit */
 405:.\Generated_Source\PSoC5/ADC_A.c ****         #endif /* End ADC_A_DEFAULT_CONV_MODE */
 406:.\Generated_Source\PSoC5/ADC_A.c **** 
 407:.\Generated_Source\PSoC5/ADC_A.c ****         /* Start the conversion */
 408:.\Generated_Source\PSoC5/ADC_A.c ****         ADC_A_SAR_CSR0_REG |= ADC_A_SAR_SOF_START_CONV;
 409:.\Generated_Source\PSoC5/ADC_A.c ****     }
 410:.\Generated_Source\PSoC5/ADC_A.c **** 
 411:.\Generated_Source\PSoC5/ADC_A.c **** 
 412:.\Generated_Source\PSoC5/ADC_A.c ****     /*******************************************************************************
 413:.\Generated_Source\PSoC5/ADC_A.c ****     * Function Name: ADC_A_StopConvert
 414:.\Generated_Source\PSoC5/ADC_A.c ****     ********************************************************************************
 415:.\Generated_Source\PSoC5/ADC_A.c ****     *
 416:.\Generated_Source\PSoC5/ADC_A.c ****     * Summary:
 417:.\Generated_Source\PSoC5/ADC_A.c ****     *  Forces the ADC to stop conversions. If a conversion is currently executing,
 418:.\Generated_Source\PSoC5/ADC_A.c ****     *  that conversion will complete, but no further conversions will occur. This
 419:.\Generated_Source\PSoC5/ADC_A.c ****     *  function is not available when the Hardware Trigger sample mode is selected.
 420:.\Generated_Source\PSoC5/ADC_A.c ****     *
 421:.\Generated_Source\PSoC5/ADC_A.c ****     * Parameters:
 422:.\Generated_Source\PSoC5/ADC_A.c ****     *  None.
 423:.\Generated_Source\PSoC5/ADC_A.c ****     *
 424:.\Generated_Source\PSoC5/ADC_A.c ****     * Return:
 425:.\Generated_Source\PSoC5/ADC_A.c ****     *  None.
 426:.\Generated_Source\PSoC5/ADC_A.c ****     *
 427:.\Generated_Source\PSoC5/ADC_A.c ****     * Theory:
 428:.\Generated_Source\PSoC5/ADC_A.c ****     *  Stops ADC conversion in Free Running mode.
 429:.\Generated_Source\PSoC5/ADC_A.c ****     *
 430:.\Generated_Source\PSoC5/ADC_A.c ****     * Side Effects:
 431:.\Generated_Source\PSoC5/ADC_A.c ****     *  In Software Trigger sample mode, this function sets a software version of the
ARM GAS  C:\Users\Thomas\AppData\Local\Temp\ccgueSla.s 			page 9


 432:.\Generated_Source\PSoC5/ADC_A.c ****     *  SOC to low level and switches the SOC source to hardware SOC input.
 433:.\Generated_Source\PSoC5/ADC_A.c ****     *
 434:.\Generated_Source\PSoC5/ADC_A.c ****     *******************************************************************************/
 435:.\Generated_Source\PSoC5/ADC_A.c ****     void ADC_A_StopConvert(void)
 436:.\Generated_Source\PSoC5/ADC_A.c ****     {
 437:.\Generated_Source\PSoC5/ADC_A.c ****         /* Stop all conversions */
 438:.\Generated_Source\PSoC5/ADC_A.c ****         ADC_A_SAR_CSR0_REG &= (uint8)~ADC_A_SAR_SOF_START_CONV;
 439:.\Generated_Source\PSoC5/ADC_A.c **** 
 440:.\Generated_Source\PSoC5/ADC_A.c ****         #if(ADC_A_DEFAULT_CONV_MODE != ADC_A__FREE_RUNNING)  /* If software triggered mode */
 441:.\Generated_Source\PSoC5/ADC_A.c ****             /* Return source to UDB for hardware SOF signal */
 442:.\Generated_Source\PSoC5/ADC_A.c ****             ADC_A_SAR_CSR0_REG |= ADC_A_SAR_MX_SOF_UDB;    /* source: UDB */
 443:.\Generated_Source\PSoC5/ADC_A.c ****         #endif /* End ADC_A_DEFAULT_CONV_MODE */
 444:.\Generated_Source\PSoC5/ADC_A.c **** 
 445:.\Generated_Source\PSoC5/ADC_A.c ****     }
 446:.\Generated_Source\PSoC5/ADC_A.c **** 
 447:.\Generated_Source\PSoC5/ADC_A.c **** #endif /* End ADC_A_DEFAULT_CONV_MODE != ADC_A__HARDWARE_TRIGGER */
 448:.\Generated_Source\PSoC5/ADC_A.c **** 
 449:.\Generated_Source\PSoC5/ADC_A.c **** 
 450:.\Generated_Source\PSoC5/ADC_A.c **** /*******************************************************************************
 451:.\Generated_Source\PSoC5/ADC_A.c **** * Function Name: ADC_A_IsEndConversion
 452:.\Generated_Source\PSoC5/ADC_A.c **** ********************************************************************************
 453:.\Generated_Source\PSoC5/ADC_A.c **** *
 454:.\Generated_Source\PSoC5/ADC_A.c **** * Summary:
 455:.\Generated_Source\PSoC5/ADC_A.c **** *  Immediately returns the status of the conversion or does not return
 456:.\Generated_Source\PSoC5/ADC_A.c **** *  (blocking) until the conversion completes, depending on the retMode
 457:.\Generated_Source\PSoC5/ADC_A.c **** *  parameter.
 458:.\Generated_Source\PSoC5/ADC_A.c **** *
 459:.\Generated_Source\PSoC5/ADC_A.c **** * Parameters:
 460:.\Generated_Source\PSoC5/ADC_A.c **** *  retMode:  Check conversion return mode.
 461:.\Generated_Source\PSoC5/ADC_A.c **** *   ADC_A_RETURN_STATUS: Immediately returns the status. If the
 462:.\Generated_Source\PSoC5/ADC_A.c **** *     value returned is zero, the conversion is not complete, and this function
 463:.\Generated_Source\PSoC5/ADC_A.c **** *     should be retried until a nonzero result is returned.
 464:.\Generated_Source\PSoC5/ADC_A.c **** *   ADC_A_WAIT_FOR_RESULT: Does not return a result until the ADC
 465:.\Generated_Source\PSoC5/ADC_A.c **** *     conversion is complete.
 466:.\Generated_Source\PSoC5/ADC_A.c **** *
 467:.\Generated_Source\PSoC5/ADC_A.c **** * Return:
 468:.\Generated_Source\PSoC5/ADC_A.c **** *  (uint8)  0 =>  The ADC is still calculating the last result.
 469:.\Generated_Source\PSoC5/ADC_A.c **** *           1 =>  The last conversion is complete.
 470:.\Generated_Source\PSoC5/ADC_A.c **** *
 471:.\Generated_Source\PSoC5/ADC_A.c **** * Side Effects:
 472:.\Generated_Source\PSoC5/ADC_A.c **** *  This function reads the end of conversion status, which is cleared on read.
 473:.\Generated_Source\PSoC5/ADC_A.c **** *
 474:.\Generated_Source\PSoC5/ADC_A.c **** *******************************************************************************/
 475:.\Generated_Source\PSoC5/ADC_A.c **** uint8 ADC_A_IsEndConversion(uint8 retMode)
 476:.\Generated_Source\PSoC5/ADC_A.c **** {
 477:.\Generated_Source\PSoC5/ADC_A.c ****     uint8 status;
 478:.\Generated_Source\PSoC5/ADC_A.c **** 
 479:.\Generated_Source\PSoC5/ADC_A.c ****     do
 480:.\Generated_Source\PSoC5/ADC_A.c ****     {
 481:.\Generated_Source\PSoC5/ADC_A.c ****         status = ADC_A_SAR_CSR1_REG & ADC_A_SAR_EOF_1;
 482:.\Generated_Source\PSoC5/ADC_A.c ****     } while ((status != ADC_A_SAR_EOF_1) && (retMode == ADC_A_WAIT_FOR_RESULT));
 483:.\Generated_Source\PSoC5/ADC_A.c ****     /* If convertion complete, wait until EOF bit released */
 484:.\Generated_Source\PSoC5/ADC_A.c ****     if(status == ADC_A_SAR_EOF_1)
 485:.\Generated_Source\PSoC5/ADC_A.c ****     {
 486:.\Generated_Source\PSoC5/ADC_A.c ****         /* wait one ADC clock to let the EOC status bit release */
 487:.\Generated_Source\PSoC5/ADC_A.c ****         CyDelayUs(1u);
 488:.\Generated_Source\PSoC5/ADC_A.c ****         /* Do the unconditional read operation of the CSR1 register to make sure the EOC bit has be
ARM GAS  C:\Users\Thomas\AppData\Local\Temp\ccgueSla.s 			page 10


 489:.\Generated_Source\PSoC5/ADC_A.c ****         CY_GET_REG8(ADC_A_SAR_CSR1_PTR);
 490:.\Generated_Source\PSoC5/ADC_A.c ****     }
 491:.\Generated_Source\PSoC5/ADC_A.c **** 
 492:.\Generated_Source\PSoC5/ADC_A.c ****     return(status);
 493:.\Generated_Source\PSoC5/ADC_A.c **** }
 494:.\Generated_Source\PSoC5/ADC_A.c **** 
 495:.\Generated_Source\PSoC5/ADC_A.c **** 
 496:.\Generated_Source\PSoC5/ADC_A.c **** /*******************************************************************************
 497:.\Generated_Source\PSoC5/ADC_A.c **** * Function Name: ADC_A_GetResult8
 498:.\Generated_Source\PSoC5/ADC_A.c **** ********************************************************************************
 499:.\Generated_Source\PSoC5/ADC_A.c **** *
 500:.\Generated_Source\PSoC5/ADC_A.c **** * Summary:
 501:.\Generated_Source\PSoC5/ADC_A.c **** *  Returns the result of an 8-bit conversion. If the resolution is set greater
 502:.\Generated_Source\PSoC5/ADC_A.c **** *  than 8 bits, the function returns the LSB of the result.
 503:.\Generated_Source\PSoC5/ADC_A.c **** *  ADC_A_IsEndConversion() should be called to verify that the data
 504:.\Generated_Source\PSoC5/ADC_A.c **** *   sample is ready.
 505:.\Generated_Source\PSoC5/ADC_A.c **** *
 506:.\Generated_Source\PSoC5/ADC_A.c **** * Parameters:
 507:.\Generated_Source\PSoC5/ADC_A.c **** *  None.
 508:.\Generated_Source\PSoC5/ADC_A.c **** *
 509:.\Generated_Source\PSoC5/ADC_A.c **** * Return:
 510:.\Generated_Source\PSoC5/ADC_A.c **** *  The LSB of the last ADC conversion.
 511:.\Generated_Source\PSoC5/ADC_A.c **** *
 512:.\Generated_Source\PSoC5/ADC_A.c **** * Global Variables:
 513:.\Generated_Source\PSoC5/ADC_A.c **** *  ADC_A_shift - used to convert the ADC counts to the 2s
 514:.\Generated_Source\PSoC5/ADC_A.c **** *  compliment form.
 515:.\Generated_Source\PSoC5/ADC_A.c **** *
 516:.\Generated_Source\PSoC5/ADC_A.c **** * Side Effects:
 517:.\Generated_Source\PSoC5/ADC_A.c **** *  Converts the ADC counts to the 2s complement form.
 518:.\Generated_Source\PSoC5/ADC_A.c **** *
 519:.\Generated_Source\PSoC5/ADC_A.c **** *******************************************************************************/
 520:.\Generated_Source\PSoC5/ADC_A.c **** int8 ADC_A_GetResult8( void )
 521:.\Generated_Source\PSoC5/ADC_A.c **** {
 522:.\Generated_Source\PSoC5/ADC_A.c ****     return( (int8)ADC_A_SAR_WRK0_REG - (int8)ADC_A_shift);
 523:.\Generated_Source\PSoC5/ADC_A.c **** }
 524:.\Generated_Source\PSoC5/ADC_A.c **** 
 525:.\Generated_Source\PSoC5/ADC_A.c **** 
 526:.\Generated_Source\PSoC5/ADC_A.c **** /*******************************************************************************
 527:.\Generated_Source\PSoC5/ADC_A.c **** * Function Name: ADC_A_GetResult16
 528:.\Generated_Source\PSoC5/ADC_A.c **** ********************************************************************************
 529:.\Generated_Source\PSoC5/ADC_A.c **** *
 530:.\Generated_Source\PSoC5/ADC_A.c **** * Summary:
 531:.\Generated_Source\PSoC5/ADC_A.c **** *  Returns a 16-bit result for a conversion with a result that has a resolution
 532:.\Generated_Source\PSoC5/ADC_A.c **** *  of 8 to 12 bits.
 533:.\Generated_Source\PSoC5/ADC_A.c **** *  ADC_A_IsEndConversion() should be called to verify that the data
 534:.\Generated_Source\PSoC5/ADC_A.c **** *   sample is ready
 535:.\Generated_Source\PSoC5/ADC_A.c **** *
 536:.\Generated_Source\PSoC5/ADC_A.c **** * Parameters:
 537:.\Generated_Source\PSoC5/ADC_A.c **** *  None.
 538:.\Generated_Source\PSoC5/ADC_A.c **** *
 539:.\Generated_Source\PSoC5/ADC_A.c **** * Return:
 540:.\Generated_Source\PSoC5/ADC_A.c **** *  The 16-bit result of the last ADC conversion
 541:.\Generated_Source\PSoC5/ADC_A.c **** *
 542:.\Generated_Source\PSoC5/ADC_A.c **** * Global Variables:
 543:.\Generated_Source\PSoC5/ADC_A.c **** *  ADC_A_shift - used to convert the ADC counts to the 2s
 544:.\Generated_Source\PSoC5/ADC_A.c **** *  compliment form.
 545:.\Generated_Source\PSoC5/ADC_A.c **** *
ARM GAS  C:\Users\Thomas\AppData\Local\Temp\ccgueSla.s 			page 11


 546:.\Generated_Source\PSoC5/ADC_A.c **** * Side Effects:
 547:.\Generated_Source\PSoC5/ADC_A.c **** *  Converts the ADC counts to the 2s complement form.
 548:.\Generated_Source\PSoC5/ADC_A.c **** *
 549:.\Generated_Source\PSoC5/ADC_A.c **** *******************************************************************************/
 550:.\Generated_Source\PSoC5/ADC_A.c **** int16 ADC_A_GetResult16( void )
 551:.\Generated_Source\PSoC5/ADC_A.c **** {
 552:.\Generated_Source\PSoC5/ADC_A.c ****     uint16 res;
 553:.\Generated_Source\PSoC5/ADC_A.c **** 
 554:.\Generated_Source\PSoC5/ADC_A.c ****     res = CY_GET_REG16(ADC_A_SAR_WRK_PTR);
 555:.\Generated_Source\PSoC5/ADC_A.c **** 
 556:.\Generated_Source\PSoC5/ADC_A.c ****     return( (int16)res - ADC_A_shift );
 557:.\Generated_Source\PSoC5/ADC_A.c **** }
 558:.\Generated_Source\PSoC5/ADC_A.c **** 
 559:.\Generated_Source\PSoC5/ADC_A.c **** 
 560:.\Generated_Source\PSoC5/ADC_A.c **** /*******************************************************************************
 561:.\Generated_Source\PSoC5/ADC_A.c **** * Function Name: ADC_A_SetOffset
 562:.\Generated_Source\PSoC5/ADC_A.c **** ********************************************************************************
 563:.\Generated_Source\PSoC5/ADC_A.c **** *
 564:.\Generated_Source\PSoC5/ADC_A.c **** * Summary:
 565:.\Generated_Source\PSoC5/ADC_A.c **** *  Sets the ADC offset, which is used by ADC_A_CountsTo_Volts(),
 566:.\Generated_Source\PSoC5/ADC_A.c **** *  ADC_A_CountsTo_mVolts(), and ADC_A_CountsTo_uVolts()
 567:.\Generated_Source\PSoC5/ADC_A.c **** *  to subtract the offset from the given reading before calculating the voltage
 568:.\Generated_Source\PSoC5/ADC_A.c **** *  conversion.
 569:.\Generated_Source\PSoC5/ADC_A.c **** *
 570:.\Generated_Source\PSoC5/ADC_A.c **** * Parameters:
 571:.\Generated_Source\PSoC5/ADC_A.c **** *  int16: This value is measured when the inputs are shorted or connected to
 572:.\Generated_Source\PSoC5/ADC_A.c ****    the same input voltage.
 573:.\Generated_Source\PSoC5/ADC_A.c **** *
 574:.\Generated_Source\PSoC5/ADC_A.c **** * Return:
 575:.\Generated_Source\PSoC5/ADC_A.c **** *  None.
 576:.\Generated_Source\PSoC5/ADC_A.c **** *
 577:.\Generated_Source\PSoC5/ADC_A.c **** * Global Variables:
 578:.\Generated_Source\PSoC5/ADC_A.c **** *  The ADC_A_offset variable modified. This variable is used for
 579:.\Generated_Source\PSoC5/ADC_A.c **** *  offset calibration purpose.
 580:.\Generated_Source\PSoC5/ADC_A.c **** *  Affects the ADC_A_CountsTo_Volts,
 581:.\Generated_Source\PSoC5/ADC_A.c **** *  ADC_A_CountsTo_mVolts, ADC_A_CountsTo_uVolts functions
 582:.\Generated_Source\PSoC5/ADC_A.c **** *  by subtracting the given offset.
 583:.\Generated_Source\PSoC5/ADC_A.c **** *
 584:.\Generated_Source\PSoC5/ADC_A.c **** *******************************************************************************/
 585:.\Generated_Source\PSoC5/ADC_A.c **** void ADC_A_SetOffset(int16 offset)
 586:.\Generated_Source\PSoC5/ADC_A.c **** {
 587:.\Generated_Source\PSoC5/ADC_A.c ****     ADC_A_offset = offset;
 588:.\Generated_Source\PSoC5/ADC_A.c **** }
 589:.\Generated_Source\PSoC5/ADC_A.c **** 
 590:.\Generated_Source\PSoC5/ADC_A.c **** 
 591:.\Generated_Source\PSoC5/ADC_A.c **** /*******************************************************************************
 592:.\Generated_Source\PSoC5/ADC_A.c **** * Function Name: ADC_A_CalcGain
 593:.\Generated_Source\PSoC5/ADC_A.c **** ********************************************************************************
 594:.\Generated_Source\PSoC5/ADC_A.c **** *
 595:.\Generated_Source\PSoC5/ADC_A.c **** * Summary:
 596:.\Generated_Source\PSoC5/ADC_A.c **** *  This function calculates the ADC gain in counts per 10 volt.
 597:.\Generated_Source\PSoC5/ADC_A.c **** *
 598:.\Generated_Source\PSoC5/ADC_A.c **** * Parameters:
 599:.\Generated_Source\PSoC5/ADC_A.c **** *  uint8: resolution
 600:.\Generated_Source\PSoC5/ADC_A.c **** *
 601:.\Generated_Source\PSoC5/ADC_A.c **** * Return:
 602:.\Generated_Source\PSoC5/ADC_A.c **** *  None.
ARM GAS  C:\Users\Thomas\AppData\Local\Temp\ccgueSla.s 			page 12


 603:.\Generated_Source\PSoC5/ADC_A.c **** *
 604:.\Generated_Source\PSoC5/ADC_A.c **** * Global Variables:
 605:.\Generated_Source\PSoC5/ADC_A.c **** *  ADC_A_shift variable initialized. This variable is used to
 606:.\Generated_Source\PSoC5/ADC_A.c **** *  convert the ADC counts to the 2s compliment form.
 607:.\Generated_Source\PSoC5/ADC_A.c **** *  ADC_A_countsPer10Volt variable initialized. This variable is used
 608:.\Generated_Source\PSoC5/ADC_A.c **** *  for gain calibration purpose.
 609:.\Generated_Source\PSoC5/ADC_A.c **** *
 610:.\Generated_Source\PSoC5/ADC_A.c **** *******************************************************************************/
 611:.\Generated_Source\PSoC5/ADC_A.c **** static void ADC_A_CalcGain( uint8 resolution )
 612:.\Generated_Source\PSoC5/ADC_A.c **** {
  26              		.loc 1 612 0
  27              		.cfi_startproc
  28              		@ args = 0, pretend = 0, frame = 0
  29              		@ frame_needed = 0, uses_anonymous_args = 0
  30              	.LVL0:
  31 0000 08B5     		push	{r3, lr}
  32              		.cfi_def_cfa_offset 8
  33              		.cfi_offset 3, -8
  34              		.cfi_offset 14, -4
 613:.\Generated_Source\PSoC5/ADC_A.c ****     int32 counts;
 614:.\Generated_Source\PSoC5/ADC_A.c ****     #if(!((ADC_A_DEFAULT_RANGE == ADC_A__VSS_TO_VREF) || \
 615:.\Generated_Source\PSoC5/ADC_A.c ****          (ADC_A_DEFAULT_RANGE == ADC_A__VSSA_TO_VDDA) || \
 616:.\Generated_Source\PSoC5/ADC_A.c ****          (ADC_A_DEFAULT_RANGE == ADC_A__VSSA_TO_VDAC)) )
 617:.\Generated_Source\PSoC5/ADC_A.c ****         uint16 diff_zero;
 618:.\Generated_Source\PSoC5/ADC_A.c ****     #endif /* End ADC_A_DEFAULT_RANGE */
 619:.\Generated_Source\PSoC5/ADC_A.c **** 
 620:.\Generated_Source\PSoC5/ADC_A.c ****     switch (resolution)
  35              		.loc 1 620 0
  36 0002 0A28     		cmp	r0, #10
  37 0004 13D0     		beq	.L6
  38 0006 0C28     		cmp	r0, #12
  39 0008 02D0     		beq	.L4
  40 000a 0828     		cmp	r0, #8
  41 000c 09D1     		bne	.L7
  42 000e 04E0     		b	.L5
  43              	.L4:
 621:.\Generated_Source\PSoC5/ADC_A.c ****     {
 622:.\Generated_Source\PSoC5/ADC_A.c ****         case (uint8)ADC_A__BITS_12:
 623:.\Generated_Source\PSoC5/ADC_A.c ****             counts = (int32)ADC_A_SAR_WRK_MAX_12BIT;
 624:.\Generated_Source\PSoC5/ADC_A.c ****             #if(!((ADC_A_DEFAULT_RANGE == ADC_A__VSS_TO_VREF) || \
 625:.\Generated_Source\PSoC5/ADC_A.c ****                  (ADC_A_DEFAULT_RANGE == ADC_A__VSSA_TO_VDDA) || \
 626:.\Generated_Source\PSoC5/ADC_A.c ****                  (ADC_A_DEFAULT_RANGE == ADC_A__VSSA_TO_VDAC)) )
 627:.\Generated_Source\PSoC5/ADC_A.c ****                 diff_zero = ADC_A_SAR_DIFF_SHIFT;
  44              		.loc 1 627 0
  45 0010 4FF40061 		mov	r1, #2048
 623:.\Generated_Source\PSoC5/ADC_A.c ****             #if(!((ADC_A_DEFAULT_RANGE == ADC_A__VSS_TO_VREF) || \
  46              		.loc 1 623 0
  47 0014 4FF48052 		mov	r2, #4096
  48 0018 0DE0     		b	.L3
  49              	.L5:
  50              	.LVL1:
 628:.\Generated_Source\PSoC5/ADC_A.c ****             #endif /* End ADC_A_DEFAULT_RANGE */
 629:.\Generated_Source\PSoC5/ADC_A.c ****             break;
 630:.\Generated_Source\PSoC5/ADC_A.c ****         case (uint8)ADC_A__BITS_10:
 631:.\Generated_Source\PSoC5/ADC_A.c ****             counts = (int32)ADC_A_SAR_WRK_MAX_10BIT;
 632:.\Generated_Source\PSoC5/ADC_A.c ****             #if(!((ADC_A_DEFAULT_RANGE == ADC_A__VSS_TO_VREF) || \
 633:.\Generated_Source\PSoC5/ADC_A.c ****                  (ADC_A_DEFAULT_RANGE == ADC_A__VSSA_TO_VDDA) || \
ARM GAS  C:\Users\Thomas\AppData\Local\Temp\ccgueSla.s 			page 13


 634:.\Generated_Source\PSoC5/ADC_A.c ****                  (ADC_A_DEFAULT_RANGE == ADC_A__VSSA_TO_VDAC)) )
 635:.\Generated_Source\PSoC5/ADC_A.c ****                 diff_zero = ADC_A_SAR_DIFF_SHIFT >> 2u;
 636:.\Generated_Source\PSoC5/ADC_A.c ****             #endif /* End ADC_A_DEFAULT_RANGE */
 637:.\Generated_Source\PSoC5/ADC_A.c ****             break;
 638:.\Generated_Source\PSoC5/ADC_A.c ****         case (uint8)ADC_A__BITS_8:
 639:.\Generated_Source\PSoC5/ADC_A.c ****             counts = (int32)ADC_A_SAR_WRK_MAX_8BIT;
 640:.\Generated_Source\PSoC5/ADC_A.c ****             #if(!((ADC_A_DEFAULT_RANGE == ADC_A__VSS_TO_VREF) || \
 641:.\Generated_Source\PSoC5/ADC_A.c ****                  (ADC_A_DEFAULT_RANGE == ADC_A__VSSA_TO_VDDA) || \
 642:.\Generated_Source\PSoC5/ADC_A.c ****                  (ADC_A_DEFAULT_RANGE == ADC_A__VSSA_TO_VDAC)) )
 643:.\Generated_Source\PSoC5/ADC_A.c ****                 diff_zero = ADC_A_SAR_DIFF_SHIFT >> 4u;
  51              		.loc 1 643 0
  52 001a 8021     		movs	r1, #128
 639:.\Generated_Source\PSoC5/ADC_A.c ****             #if(!((ADC_A_DEFAULT_RANGE == ADC_A__VSS_TO_VREF) || \
  53              		.loc 1 639 0
  54 001c 4FF48072 		mov	r2, #256
 644:.\Generated_Source\PSoC5/ADC_A.c ****             #endif /* End ADC_A_DEFAULT_RANGE */
 645:.\Generated_Source\PSoC5/ADC_A.c ****             break;
  55              		.loc 1 645 0
  56 0020 09E0     		b	.L3
  57              	.LVL2:
  58              	.L7:
 646:.\Generated_Source\PSoC5/ADC_A.c ****         default: /* Halt CPU in debug mode if resolution is out of valid range */
 647:.\Generated_Source\PSoC5/ADC_A.c ****             counts = 0;
 648:.\Generated_Source\PSoC5/ADC_A.c ****             #if(!((ADC_A_DEFAULT_RANGE == ADC_A__VSS_TO_VREF) || \
 649:.\Generated_Source\PSoC5/ADC_A.c ****                  (ADC_A_DEFAULT_RANGE == ADC_A__VSSA_TO_VDDA) || \
 650:.\Generated_Source\PSoC5/ADC_A.c ****                  (ADC_A_DEFAULT_RANGE == ADC_A__VSSA_TO_VDAC)) )
 651:.\Generated_Source\PSoC5/ADC_A.c ****                 diff_zero = 0u;
 652:.\Generated_Source\PSoC5/ADC_A.c ****             #endif /* End ADC_A_DEFAULT_RANGE */
 653:.\Generated_Source\PSoC5/ADC_A.c ****             CYASSERT(0u != 0u);
  59              		.loc 1 653 0
  60 0022 0020     		movs	r0, #0
  61              	.LVL3:
  62 0024 FFF7FEFF 		bl	CyHalt
  63              	.LVL4:
 651:.\Generated_Source\PSoC5/ADC_A.c ****             #endif /* End ADC_A_DEFAULT_RANGE */
  64              		.loc 1 651 0
  65 0028 0021     		movs	r1, #0
 647:.\Generated_Source\PSoC5/ADC_A.c ****             #if(!((ADC_A_DEFAULT_RANGE == ADC_A__VSS_TO_VREF) || \
  66              		.loc 1 647 0
  67 002a 0A46     		mov	r2, r1
  68 002c 03E0     		b	.L3
  69              	.LVL5:
  70              	.L6:
 635:.\Generated_Source\PSoC5/ADC_A.c ****             #endif /* End ADC_A_DEFAULT_RANGE */
  71              		.loc 1 635 0
  72 002e 4FF40071 		mov	r1, #512
 631:.\Generated_Source\PSoC5/ADC_A.c ****             #if(!((ADC_A_DEFAULT_RANGE == ADC_A__VSS_TO_VREF) || \
  73              		.loc 1 631 0
  74 0032 4FF48062 		mov	r2, #1024
  75              	.LVL6:
  76              	.L3:
 654:.\Generated_Source\PSoC5/ADC_A.c ****             break;
 655:.\Generated_Source\PSoC5/ADC_A.c ****     }
 656:.\Generated_Source\PSoC5/ADC_A.c ****     ADC_A_countsPerVolt = 0; /* Clear obsolete variable */
  77              		.loc 1 656 0
  78 0036 0020     		movs	r0, #0
  79 0038 094B     		ldr	r3, .L9
ARM GAS  C:\Users\Thomas\AppData\Local\Temp\ccgueSla.s 			page 14


  80 003a 1880     		strh	r0, [r3]	@ movhi
 657:.\Generated_Source\PSoC5/ADC_A.c ****     /* Calculate gain in counts per 10 volts with rounding */
 658:.\Generated_Source\PSoC5/ADC_A.c ****     ADC_A_countsPer10Volt = (((counts * ADC_A_10MV_COUNTS) +
  81              		.loc 1 658 0
  82 003c 41F28833 		movw	r3, #5000
  83 0040 42F21070 		movw	r0, #10000
  84 0044 00FB0233 		mla	r3, r0, r2, r3
 659:.\Generated_Source\PSoC5/ADC_A.c ****                         ADC_A_DEFAULT_REF_VOLTAGE_MV) / (ADC_A_DEFAULT_REF_VOLTAGE_MV * 2));
  85              		.loc 1 659 0
  86 0048 064A     		ldr	r2, .L9+4
  87              	.LVL7:
  88 004a 82FB0302 		smull	r0, r2, r2, r3
  89 004e DB17     		asrs	r3, r3, #31
  90 0050 C3EB2233 		rsb	r3, r3, r2, asr #12
 658:.\Generated_Source\PSoC5/ADC_A.c ****                         ADC_A_DEFAULT_REF_VOLTAGE_MV) / (ADC_A_DEFAULT_REF_VOLTAGE_MV * 2));
  91              		.loc 1 658 0
  92 0054 044A     		ldr	r2, .L9+8
  93 0056 1360     		str	r3, [r2]
 660:.\Generated_Source\PSoC5/ADC_A.c **** 
 661:.\Generated_Source\PSoC5/ADC_A.c ****     #if( (ADC_A_DEFAULT_RANGE == ADC_A__VSS_TO_VREF) || \
 662:.\Generated_Source\PSoC5/ADC_A.c ****          (ADC_A_DEFAULT_RANGE == ADC_A__VSSA_TO_VDDA) || \
 663:.\Generated_Source\PSoC5/ADC_A.c ****          (ADC_A_DEFAULT_RANGE == ADC_A__VSSA_TO_VDAC) )
 664:.\Generated_Source\PSoC5/ADC_A.c ****         ADC_A_shift = 0;
 665:.\Generated_Source\PSoC5/ADC_A.c ****     #else
 666:.\Generated_Source\PSoC5/ADC_A.c ****         ADC_A_shift = diff_zero;
  94              		.loc 1 666 0
  95 0058 89B2     		uxth	r1, r1
  96 005a 044B     		ldr	r3, .L9+12
  97 005c 1980     		strh	r1, [r3]	@ movhi
  98 005e 08BD     		pop	{r3, pc}
  99              	.L10:
 100              		.align	2
 101              	.L9:
 102 0060 00000000 		.word	ADC_A_countsPerVolt
 103 0064 AD8BDB68 		.word	1759218605
 104 0068 00000000 		.word	ADC_A_countsPer10Volt
 105 006c 00000000 		.word	ADC_A_shift
 106              		.cfi_endproc
 107              	.LFE12:
 108              		.size	ADC_A_CalcGain, .-ADC_A_CalcGain
 109              		.section	.text.ADC_A_Enable,"ax",%progbits
 110              		.align	2
 111              		.global	ADC_A_Enable
 112              		.thumb
 113              		.thumb_func
 114              		.type	ADC_A_Enable, %function
 115              	ADC_A_Enable:
 116              	.LFB2:
 144:.\Generated_Source\PSoC5/ADC_A.c ****     uint8 tmpReg;
 117              		.loc 1 144 0
 118              		.cfi_startproc
 119              		@ args = 0, pretend = 0, frame = 0
 120              		@ frame_needed = 0, uses_anonymous_args = 0
 121 0000 10B5     		push	{r4, lr}
 122              		.cfi_def_cfa_offset 8
 123              		.cfi_offset 4, -8
 124              		.cfi_offset 14, -4
ARM GAS  C:\Users\Thomas\AppData\Local\Temp\ccgueSla.s 			page 15


 147:.\Generated_Source\PSoC5/ADC_A.c **** 
 125              		.loc 1 147 0
 126 0002 FFF7FEFF 		bl	CyEnterCriticalSection
 127              	.LVL8:
 128 0006 0446     		mov	r4, r0
 129              	.LVL9:
 150:.\Generated_Source\PSoC5/ADC_A.c **** 
 130              		.loc 1 150 0
 131 0008 1F4A     		ldr	r2, .L13
 132 000a 1378     		ldrb	r3, [r2]	@ zero_extendqisi2
 133 000c 43F00103 		orr	r3, r3, #1
 134 0010 1370     		strb	r3, [r2]
 153:.\Generated_Source\PSoC5/ADC_A.c **** 
 135              		.loc 1 153 0
 136 0012 1032     		adds	r2, r2, #16
 137 0014 1378     		ldrb	r3, [r2]	@ zero_extendqisi2
 138 0016 43F00103 		orr	r3, r3, #1
 139 001a 1370     		strb	r3, [r2]
 157:.\Generated_Source\PSoC5/ADC_A.c ****         ADC_A_STBY_PWRMGR_CLK_REG |= ADC_A_STBY_PWR_CLK_EN;
 140              		.loc 1 157 0
 141 001c 193A     		subs	r2, r2, #25
 142 001e 1378     		ldrb	r3, [r2]	@ zero_extendqisi2
 143 0020 43F00803 		orr	r3, r3, #8
 144 0024 1370     		strb	r3, [r2]
 158:.\Generated_Source\PSoC5/ADC_A.c ****     #endif /* End ADC_A_DEFAULT_INTERNAL_CLK */
 145              		.loc 1 158 0
 146 0026 1032     		adds	r2, r2, #16
 147 0028 1378     		ldrb	r3, [r2]	@ zero_extendqisi2
 148 002a 43F00803 		orr	r3, r3, #8
 149 002e 1370     		strb	r3, [r2]
 162:.\Generated_Source\PSoC5/ADC_A.c ****     tmpReg |= ADC_A_SAR_EN_BUF_VCM_EN;
 150              		.loc 1 162 0
 151 0030 02F5AA52 		add	r2, r2, #5440
 152 0034 1132     		adds	r2, r2, #17
 153 0036 1378     		ldrb	r3, [r2]	@ zero_extendqisi2
 154              	.LVL10:
 167:.\Generated_Source\PSoC5/ADC_A.c ****     #else /* In INTREF or INTREF Bypassed this buffer is ON */
 155              		.loc 1 167 0
 156 0038 03F0FE03 		and	r3, r3, #254
 157              	.LVL11:
 158 003c 43F00203 		orr	r3, r3, #2
 159              	.LVL12:
 171:.\Generated_Source\PSoC5/ADC_A.c **** 
 160              		.loc 1 171 0
 161 0040 1370     		strb	r3, [r2]
 178:.\Generated_Source\PSoC5/ADC_A.c ****         #endif /* ADC_A_DEFAULT_REFERENCE == ADC_A__EXT_REF */
 162              		.loc 1 178 0
 163 0042 8022     		movs	r2, #128
 164 0044 114B     		ldr	r3, .L13+4
 165              	.LVL13:
 166 0046 1A70     		strb	r2, [r3]
 167              	.LVL14:
 192:.\Generated_Source\PSoC5/ADC_A.c ****     #endif /* ADC_A_HIGH_POWER_PULSE == 0u */
 168              		.loc 1 192 0
 169 0048 013B     		subs	r3, r3, #1
 170 004a 1A78     		ldrb	r2, [r3]	@ zero_extendqisi2
 171 004c 42F04002 		orr	r2, r2, #64
ARM GAS  C:\Users\Thomas\AppData\Local\Temp\ccgueSla.s 			page 16


 172 0050 1A70     		strb	r2, [r3]
 202:.\Generated_Source\PSoC5/ADC_A.c ****     #endif /* ADC_A_HIGH_POWER_PULSE == 0u */
 173              		.loc 1 202 0
 174 0052 1A78     		ldrb	r2, [r3]	@ zero_extendqisi2
 175 0054 02F0FC02 		and	r2, r2, #252
 176 0058 1A70     		strb	r2, [r3]
 206:.\Generated_Source\PSoC5/ADC_A.c ****     /* SAR_HIZ_CLEAR:   Should not be used for LP */
 177              		.loc 1 206 0
 178 005a C822     		movs	r2, #200
 179 005c 053B     		subs	r3, r3, #5
 180 005e 1A70     		strb	r2, [r3]
 218:.\Generated_Source\PSoC5/ADC_A.c **** 
 181              		.loc 1 218 0
 182 0060 0222     		movs	r2, #2
 183 0062 A3F59753 		sub	r3, r3, #4832
 184 0066 0C3B     		subs	r3, r3, #12
 185 0068 1A70     		strb	r2, [r3]
 221:.\Generated_Source\PSoC5/ADC_A.c **** 
 186              		.loc 1 221 0
 187 006a 094A     		ldr	r2, .L13+8
 188 006c 1378     		ldrb	r3, [r2]	@ zero_extendqisi2
 189 006e 43F00803 		orr	r3, r3, #8
 190 0072 1370     		strb	r3, [r2]
 223:.\Generated_Source\PSoC5/ADC_A.c **** 
 191              		.loc 1 223 0
 192 0074 0A20     		movs	r0, #10
 193 0076 FFF7FEFF 		bl	CyDelayUs
 194              	.LVL15:
 227:.\Generated_Source\PSoC5/ADC_A.c ****     #endif   /* End ADC_A_IRQ_REMOVE */
 195              		.loc 1 227 0
 196 007a 0822     		movs	r2, #8
 197 007c 054B     		ldr	r3, .L13+12
 198 007e 1A60     		str	r2, [r3]
 230:.\Generated_Source\PSoC5/ADC_A.c **** }
 199              		.loc 1 230 0
 200 0080 2046     		mov	r0, r4
 201 0082 FFF7FEFF 		bl	CyExitCriticalSection
 202              	.LVL16:
 203 0086 10BD     		pop	{r4, pc}
 204              	.LVL17:
 205              	.L14:
 206              		.align	2
 207              	.L13:
 208 0088 AB430040 		.word	1073759147
 209 008c 06590040 		.word	1073764614
 210 0090 275B0040 		.word	1073765159
 211 0094 80E200E0 		.word	-536812928
 212              		.cfi_endproc
 213              	.LFE2:
 214              		.size	ADC_A_Enable, .-ADC_A_Enable
 215              		.section	.text.ADC_A_Stop,"ax",%progbits
 216              		.align	2
 217              		.global	ADC_A_Stop
 218              		.thumb
 219              		.thumb_func
 220              		.type	ADC_A_Stop, %function
 221              	ADC_A_Stop:
ARM GAS  C:\Users\Thomas\AppData\Local\Temp\ccgueSla.s 			page 17


 222              	.LFB3:
 249:.\Generated_Source\PSoC5/ADC_A.c ****     uint8 enableInterrupts;
 223              		.loc 1 249 0
 224              		.cfi_startproc
 225              		@ args = 0, pretend = 0, frame = 0
 226              		@ frame_needed = 0, uses_anonymous_args = 0
 227 0000 08B5     		push	{r3, lr}
 228              		.cfi_def_cfa_offset 8
 229              		.cfi_offset 3, -8
 230              		.cfi_offset 14, -4
 251:.\Generated_Source\PSoC5/ADC_A.c **** 
 231              		.loc 1 251 0
 232 0002 FFF7FEFF 		bl	CyEnterCriticalSection
 233              	.LVL18:
 254:.\Generated_Source\PSoC5/ADC_A.c ****     /* Disable the SAR ADC block in Active Power Mode */
 234              		.loc 1 254 0
 235 0006 0F4A     		ldr	r2, .L17
 236 0008 1378     		ldrb	r3, [r2]	@ zero_extendqisi2
 237 000a 03F0FE03 		and	r3, r3, #254
 238 000e 1370     		strb	r3, [r2]
 256:.\Generated_Source\PSoC5/ADC_A.c ****     /* Disable the SAR ADC in Standby Power Mode */
 239              		.loc 1 256 0
 240 0010 A2F5AA52 		sub	r2, r2, #5440
 241 0014 153A     		subs	r2, r2, #21
 242 0016 1378     		ldrb	r3, [r2]	@ zero_extendqisi2
 243 0018 03F0FE03 		and	r3, r3, #254
 244 001c 1370     		strb	r3, [r2]
 258:.\Generated_Source\PSoC5/ADC_A.c **** 
 245              		.loc 1 258 0
 246 001e 1032     		adds	r2, r2, #16
 247 0020 1378     		ldrb	r3, [r2]	@ zero_extendqisi2
 248 0022 03F0FE03 		and	r3, r3, #254
 249 0026 1370     		strb	r3, [r2]
 262:.\Generated_Source\PSoC5/ADC_A.c ****         ADC_A_STBY_PWRMGR_CLK_REG &= (uint8)~ADC_A_STBY_PWR_CLK_EN;
 250              		.loc 1 262 0
 251 0028 193A     		subs	r2, r2, #25
 252 002a 1378     		ldrb	r3, [r2]	@ zero_extendqisi2
 253 002c 03F0F703 		and	r3, r3, #247
 254 0030 1370     		strb	r3, [r2]
 263:.\Generated_Source\PSoC5/ADC_A.c ****     #endif /* End ADC_A_DEFAULT_INTERNAL_CLK */
 255              		.loc 1 263 0
 256 0032 1032     		adds	r2, r2, #16
 257 0034 1378     		ldrb	r3, [r2]	@ zero_extendqisi2
 258 0036 03F0F703 		and	r3, r3, #247
 259 003a 1370     		strb	r3, [r2]
 266:.\Generated_Source\PSoC5/ADC_A.c **** 
 260              		.loc 1 266 0
 261 003c FFF7FEFF 		bl	CyExitCriticalSection
 262              	.LVL19:
 263 0040 08BD     		pop	{r3, pc}
 264              	.L18:
 265 0042 00BF     		.align	2
 266              	.L17:
 267 0044 00590040 		.word	1073764608
 268              		.cfi_endproc
 269              	.LFE3:
 270              		.size	ADC_A_Stop, .-ADC_A_Stop
ARM GAS  C:\Users\Thomas\AppData\Local\Temp\ccgueSla.s 			page 18


 271              		.section	.text.ADC_A_SetPower,"ax",%progbits
 272              		.align	2
 273              		.global	ADC_A_SetPower
 274              		.thumb
 275              		.thumb_func
 276              		.type	ADC_A_SetPower, %function
 277              	ADC_A_SetPower:
 278              	.LFB4:
 291:.\Generated_Source\PSoC5/ADC_A.c ****     uint8 tmpReg;
 279              		.loc 1 291 0
 280              		.cfi_startproc
 281              		@ args = 0, pretend = 0, frame = 0
 282              		@ frame_needed = 0, uses_anonymous_args = 0
 283              		@ link register save eliminated.
 284              	.LVL20:
 295:.\Generated_Source\PSoC5/ADC_A.c **** 
 285              		.loc 1 295 0
 286 0000 00F00300 		and	r0, r0, #3
 287              	.LVL21:
 298:.\Generated_Source\PSoC5/ADC_A.c ****     tmpReg |= (uint8)(power << ADC_A_SAR_POWER_SHIFT);
 288              		.loc 1 298 0
 289 0004 034A     		ldr	r2, .L20
 290 0006 1378     		ldrb	r3, [r2]	@ zero_extendqisi2
 291 0008 03F03F03 		and	r3, r3, #63
 292              	.LVL22:
 299:.\Generated_Source\PSoC5/ADC_A.c ****     ADC_A_SAR_CSR0_REG = tmpReg;
 293              		.loc 1 299 0
 294 000c 43EA8010 		orr	r0, r3, r0, lsl #6
 295              	.LVL23:
 300:.\Generated_Source\PSoC5/ADC_A.c **** }
 296              		.loc 1 300 0
 297 0010 1070     		strb	r0, [r2]
 298 0012 7047     		bx	lr
 299              	.L21:
 300              		.align	2
 301              	.L20:
 302 0014 00590040 		.word	1073764608
 303              		.cfi_endproc
 304              	.LFE4:
 305              		.size	ADC_A_SetPower, .-ADC_A_SetPower
 306              		.section	.text.ADC_A_SetResolution,"ax",%progbits
 307              		.align	2
 308              		.global	ADC_A_SetResolution
 309              		.thumb
 310              		.thumb_func
 311              		.type	ADC_A_SetResolution, %function
 312              	ADC_A_SetResolution:
 313              	.LFB5:
 341:.\Generated_Source\PSoC5/ADC_A.c ****     uint8 tmpReg;
 314              		.loc 1 341 0
 315              		.cfi_startproc
 316              		@ args = 0, pretend = 0, frame = 0
 317              		@ frame_needed = 0, uses_anonymous_args = 0
 318              	.LVL24:
 319 0000 10B5     		push	{r4, lr}
 320              		.cfi_def_cfa_offset 8
 321              		.cfi_offset 4, -8
ARM GAS  C:\Users\Thomas\AppData\Local\Temp\ccgueSla.s 			page 19


 322              		.cfi_offset 14, -4
 323 0002 0446     		mov	r4, r0
 345:.\Generated_Source\PSoC5/ADC_A.c ****     {
 324              		.loc 1 345 0
 325 0004 0A28     		cmp	r0, #10
 326 0006 0DD0     		beq	.L27
 327 0008 0C28     		cmp	r0, #12
 328 000a 02D0     		beq	.L25
 329 000c 0828     		cmp	r0, #8
 330 000e 04D1     		bne	.L28
 331 0010 01E0     		b	.L26
 332              	.L25:
 348:.\Generated_Source\PSoC5/ADC_A.c ****             break;
 333              		.loc 1 348 0
 334 0012 C422     		movs	r2, #196
 335 0014 07E0     		b	.L24
 336              	.L26:
 337              	.LVL25:
 354:.\Generated_Source\PSoC5/ADC_A.c ****             break;
 338              		.loc 1 354 0
 339 0016 4422     		movs	r2, #68
 355:.\Generated_Source\PSoC5/ADC_A.c ****         default:
 340              		.loc 1 355 0
 341 0018 05E0     		b	.L24
 342              	.LVL26:
 343              	.L28:
 359:.\Generated_Source\PSoC5/ADC_A.c ****             break;
 344              		.loc 1 359 0
 345 001a 0020     		movs	r0, #0
 346              	.LVL27:
 347 001c FFF7FEFF 		bl	CyHalt
 348              	.LVL28:
 357:.\Generated_Source\PSoC5/ADC_A.c ****             /* Halt CPU in debug mode if resolution is out of valid range */
 349              		.loc 1 357 0
 350 0020 C422     		movs	r2, #196
 351 0022 00E0     		b	.L24
 352              	.LVL29:
 353              	.L27:
 351:.\Generated_Source\PSoC5/ADC_A.c ****             break;
 354              		.loc 1 351 0
 355 0024 8422     		movs	r2, #132
 356              	.LVL30:
 357              	.L24:
 362:.\Generated_Source\PSoC5/ADC_A.c **** 
 358              		.loc 1 362 0
 359 0026 034B     		ldr	r3, .L30
 360 0028 1A70     		strb	r2, [r3]
 365:.\Generated_Source\PSoC5/ADC_A.c **** }
 361              		.loc 1 365 0
 362 002a 2046     		mov	r0, r4
 363 002c FFF7FEFF 		bl	ADC_A_CalcGain
 364              	.LVL31:
 365 0030 10BD     		pop	{r4, pc}
 366              	.L31:
 367 0032 00BF     		.align	2
 368              	.L30:
 369 0034 02590040 		.word	1073764610
ARM GAS  C:\Users\Thomas\AppData\Local\Temp\ccgueSla.s 			page 20


 370              		.cfi_endproc
 371              	.LFE5:
 372              		.size	ADC_A_SetResolution, .-ADC_A_SetResolution
 373              		.section	.text.ADC_A_Init,"ax",%progbits
 374              		.align	2
 375              		.global	ADC_A_Init
 376              		.thumb
 377              		.thumb_func
 378              		.type	ADC_A_Init, %function
 379              	ADC_A_Init:
 380              	.LFB1:
 107:.\Generated_Source\PSoC5/ADC_A.c **** 
 381              		.loc 1 107 0
 382              		.cfi_startproc
 383              		@ args = 0, pretend = 0, frame = 0
 384              		@ frame_needed = 0, uses_anonymous_args = 0
 385 0000 08B5     		push	{r3, lr}
 386              		.cfi_def_cfa_offset 8
 387              		.cfi_offset 3, -8
 388              		.cfi_offset 14, -4
 111:.\Generated_Source\PSoC5/ADC_A.c ****     #endif /* End ADC_A_DEFAULT_INTERNAL_CLK */
 389              		.loc 1 111 0
 390 0002 1020     		movs	r0, #16
 391 0004 FFF7FEFF 		bl	ADC_A_theACLK_SetModeRegister
 392              	.LVL32:
 116:.\Generated_Source\PSoC5/ADC_A.c ****         (void)CyIntSetVector(ADC_A_INTC_NUMBER, &ADC_A_ISR);
 393              		.loc 1 116 0
 394 0008 0320     		movs	r0, #3
 395 000a 0721     		movs	r1, #7
 396 000c FFF7FEFF 		bl	CyIntSetPriority
 397              	.LVL33:
 117:.\Generated_Source\PSoC5/ADC_A.c ****     #endif   /* End ADC_A_IRQ_REMOVE */
 398              		.loc 1 117 0
 399 0010 0320     		movs	r0, #3
 400 0012 0749     		ldr	r1, .L34
 401 0014 FFF7FEFF 		bl	CyIntSetVector
 402              	.LVL34:
 121:.\Generated_Source\PSoC5/ADC_A.c **** 
 403              		.loc 1 121 0
 404 0018 064A     		ldr	r2, .L34+4
 405 001a 1378     		ldrb	r3, [r2]	@ zero_extendqisi2
 406 001c 43F00603 		orr	r3, r3, #6
 407 0020 1370     		strb	r3, [r2]
 124:.\Generated_Source\PSoC5/ADC_A.c ****     ADC_A_offset = 0;
 408              		.loc 1 124 0
 409 0022 0C20     		movs	r0, #12
 410 0024 FFF7FEFF 		bl	ADC_A_SetResolution
 411              	.LVL35:
 125:.\Generated_Source\PSoC5/ADC_A.c **** }
 412              		.loc 1 125 0
 413 0028 0022     		movs	r2, #0
 414 002a 034B     		ldr	r3, .L34+8
 415 002c 1A80     		strh	r2, [r3]	@ movhi
 416 002e 08BD     		pop	{r3, pc}
 417              	.L35:
 418              		.align	2
 419              	.L34:
ARM GAS  C:\Users\Thomas\AppData\Local\Temp\ccgueSla.s 			page 21


 420 0030 00000000 		.word	ADC_A_ISR
 421 0034 01590040 		.word	1073764609
 422 0038 00000000 		.word	ADC_A_offset
 423              		.cfi_endproc
 424              	.LFE1:
 425              		.size	ADC_A_Init, .-ADC_A_Init
 426              		.section	.text.ADC_A_Start,"ax",%progbits
 427              		.align	2
 428              		.global	ADC_A_Start
 429              		.thumb
 430              		.thumb_func
 431              		.type	ADC_A_Start, %function
 432              	ADC_A_Start:
 433              	.LFB0:
  75:.\Generated_Source\PSoC5/ADC_A.c **** 
 434              		.loc 1 75 0
 435              		.cfi_startproc
 436              		@ args = 0, pretend = 0, frame = 0
 437              		@ frame_needed = 0, uses_anonymous_args = 0
 438 0000 08B5     		push	{r3, lr}
 439              		.cfi_def_cfa_offset 8
 440              		.cfi_offset 3, -8
 441              		.cfi_offset 14, -4
  78:.\Generated_Source\PSoC5/ADC_A.c ****     {
 442              		.loc 1 78 0
 443 0002 054B     		ldr	r3, .L39
 444 0004 1B78     		ldrb	r3, [r3]	@ zero_extendqisi2
 445 0006 23B9     		cbnz	r3, .L37
  80:.\Generated_Source\PSoC5/ADC_A.c ****         ADC_A_initVar = 1u;
 446              		.loc 1 80 0
 447 0008 FFF7FEFF 		bl	ADC_A_Init
 448              	.LVL36:
  81:.\Generated_Source\PSoC5/ADC_A.c ****     }
 449              		.loc 1 81 0
 450 000c 0122     		movs	r2, #1
 451 000e 024B     		ldr	r3, .L39
 452 0010 1A70     		strb	r2, [r3]
 453              	.L37:
  83:.\Generated_Source\PSoC5/ADC_A.c **** }
 454              		.loc 1 83 0
 455 0012 FFF7FEFF 		bl	ADC_A_Enable
 456              	.LVL37:
 457 0016 08BD     		pop	{r3, pc}
 458              	.L40:
 459              		.align	2
 460              	.L39:
 461 0018 00000000 		.word	.LANCHOR0
 462              		.cfi_endproc
 463              	.LFE0:
 464              		.size	ADC_A_Start, .-ADC_A_Start
 465              		.section	.text.ADC_A_StartConvert,"ax",%progbits
 466              		.align	2
 467              		.global	ADC_A_StartConvert
 468              		.thumb
 469              		.thumb_func
 470              		.type	ADC_A_StartConvert, %function
 471              	ADC_A_StartConvert:
ARM GAS  C:\Users\Thomas\AppData\Local\Temp\ccgueSla.s 			page 22


 472              	.LFB6:
 402:.\Generated_Source\PSoC5/ADC_A.c ****         #if(ADC_A_DEFAULT_CONV_MODE != ADC_A__FREE_RUNNING)  /* If software triggered mode */
 473              		.loc 1 402 0
 474              		.cfi_startproc
 475              		@ args = 0, pretend = 0, frame = 0
 476              		@ frame_needed = 0, uses_anonymous_args = 0
 477              		@ link register save eliminated.
 408:.\Generated_Source\PSoC5/ADC_A.c ****     }
 478              		.loc 1 408 0
 479 0000 024A     		ldr	r2, .L42
 480 0002 1378     		ldrb	r3, [r2]	@ zero_extendqisi2
 481 0004 43F00103 		orr	r3, r3, #1
 482 0008 1370     		strb	r3, [r2]
 483 000a 7047     		bx	lr
 484              	.L43:
 485              		.align	2
 486              	.L42:
 487 000c 00590040 		.word	1073764608
 488              		.cfi_endproc
 489              	.LFE6:
 490              		.size	ADC_A_StartConvert, .-ADC_A_StartConvert
 491              		.section	.text.ADC_A_StopConvert,"ax",%progbits
 492              		.align	2
 493              		.global	ADC_A_StopConvert
 494              		.thumb
 495              		.thumb_func
 496              		.type	ADC_A_StopConvert, %function
 497              	ADC_A_StopConvert:
 498              	.LFB7:
 436:.\Generated_Source\PSoC5/ADC_A.c ****         /* Stop all conversions */
 499              		.loc 1 436 0
 500              		.cfi_startproc
 501              		@ args = 0, pretend = 0, frame = 0
 502              		@ frame_needed = 0, uses_anonymous_args = 0
 503              		@ link register save eliminated.
 438:.\Generated_Source\PSoC5/ADC_A.c **** 
 504              		.loc 1 438 0
 505 0000 024A     		ldr	r2, .L45
 506 0002 1378     		ldrb	r3, [r2]	@ zero_extendqisi2
 507 0004 03F0FE03 		and	r3, r3, #254
 508 0008 1370     		strb	r3, [r2]
 509 000a 7047     		bx	lr
 510              	.L46:
 511              		.align	2
 512              	.L45:
 513 000c 00590040 		.word	1073764608
 514              		.cfi_endproc
 515              	.LFE7:
 516              		.size	ADC_A_StopConvert, .-ADC_A_StopConvert
 517              		.section	.text.ADC_A_IsEndConversion,"ax",%progbits
 518              		.align	2
 519              		.global	ADC_A_IsEndConversion
 520              		.thumb
 521              		.thumb_func
 522              		.type	ADC_A_IsEndConversion, %function
 523              	ADC_A_IsEndConversion:
 524              	.LFB8:
ARM GAS  C:\Users\Thomas\AppData\Local\Temp\ccgueSla.s 			page 23


 476:.\Generated_Source\PSoC5/ADC_A.c ****     uint8 status;
 525              		.loc 1 476 0
 526              		.cfi_startproc
 527              		@ args = 0, pretend = 0, frame = 0
 528              		@ frame_needed = 0, uses_anonymous_args = 0
 529              	.LVL38:
 530 0000 10B5     		push	{r4, lr}
 531              		.cfi_def_cfa_offset 8
 532              		.cfi_offset 4, -8
 533              		.cfi_offset 14, -4
 534              	.L49:
 481:.\Generated_Source\PSoC5/ADC_A.c ****     } while ((status != ADC_A_SAR_EOF_1) && (retMode == ADC_A_WAIT_FOR_RESULT));
 535              		.loc 1 481 0 discriminator 2
 536 0002 074B     		ldr	r3, .L52
 537 0004 1B78     		ldrb	r3, [r3]	@ zero_extendqisi2
 538              	.LVL39:
 482:.\Generated_Source\PSoC5/ADC_A.c ****     /* If convertion complete, wait until EOF bit released */
 539              		.loc 1 482 0 discriminator 2
 540 0006 13F00104 		ands	r4, r3, #1
 541 000a 01D1     		bne	.L48
 482:.\Generated_Source\PSoC5/ADC_A.c ****     /* If convertion complete, wait until EOF bit released */
 542              		.loc 1 482 0 is_stmt 0 discriminator 1
 543 000c 0028     		cmp	r0, #0
 544 000e F8D0     		beq	.L49
 545              	.L48:
 484:.\Generated_Source\PSoC5/ADC_A.c ****     {
 546              		.loc 1 484 0 is_stmt 1
 547 0010 24B1     		cbz	r4, .L50
 487:.\Generated_Source\PSoC5/ADC_A.c ****         /* Do the unconditional read operation of the CSR1 register to make sure the EOC bit has be
 548              		.loc 1 487 0
 549 0012 0120     		movs	r0, #1
 550              	.LVL40:
 551 0014 FFF7FEFF 		bl	CyDelayUs
 552              	.LVL41:
 489:.\Generated_Source\PSoC5/ADC_A.c ****     }
 553              		.loc 1 489 0
 554 0018 014B     		ldr	r3, .L52
 555 001a 1B78     		ldrb	r3, [r3]	@ zero_extendqisi2
 556              	.L50:
 493:.\Generated_Source\PSoC5/ADC_A.c **** 
 557              		.loc 1 493 0
 558 001c 2046     		mov	r0, r4
 559 001e 10BD     		pop	{r4, pc}
 560              	.L53:
 561              		.align	2
 562              	.L52:
 563 0020 01590040 		.word	1073764609
 564              		.cfi_endproc
 565              	.LFE8:
 566              		.size	ADC_A_IsEndConversion, .-ADC_A_IsEndConversion
 567              		.section	.text.ADC_A_GetResult8,"ax",%progbits
 568              		.align	2
 569              		.global	ADC_A_GetResult8
 570              		.thumb
 571              		.thumb_func
 572              		.type	ADC_A_GetResult8, %function
 573              	ADC_A_GetResult8:
ARM GAS  C:\Users\Thomas\AppData\Local\Temp\ccgueSla.s 			page 24


 574              	.LFB9:
 521:.\Generated_Source\PSoC5/ADC_A.c ****     return( (int8)ADC_A_SAR_WRK0_REG - (int8)ADC_A_shift);
 575              		.loc 1 521 0
 576              		.cfi_startproc
 577              		@ args = 0, pretend = 0, frame = 0
 578              		@ frame_needed = 0, uses_anonymous_args = 0
 579              		@ link register save eliminated.
 522:.\Generated_Source\PSoC5/ADC_A.c **** }
 580              		.loc 1 522 0
 581 0000 034B     		ldr	r3, .L55
 582 0002 1B78     		ldrb	r3, [r3]	@ zero_extendqisi2
 583 0004 034A     		ldr	r2, .L55+4
 584 0006 1088     		ldrh	r0, [r2]
 585 0008 181A     		subs	r0, r3, r0
 523:.\Generated_Source\PSoC5/ADC_A.c **** 
 586              		.loc 1 523 0
 587 000a 40B2     		sxtb	r0, r0
 588 000c 7047     		bx	lr
 589              	.L56:
 590 000e 00BF     		.align	2
 591              	.L55:
 592 0010 A05B0040 		.word	1073765280
 593 0014 00000000 		.word	ADC_A_shift
 594              		.cfi_endproc
 595              	.LFE9:
 596              		.size	ADC_A_GetResult8, .-ADC_A_GetResult8
 597              		.section	.text.ADC_A_GetResult16,"ax",%progbits
 598              		.align	2
 599              		.global	ADC_A_GetResult16
 600              		.thumb
 601              		.thumb_func
 602              		.type	ADC_A_GetResult16, %function
 603              	ADC_A_GetResult16:
 604              	.LFB10:
 551:.\Generated_Source\PSoC5/ADC_A.c ****     uint16 res;
 605              		.loc 1 551 0
 606              		.cfi_startproc
 607              		@ args = 0, pretend = 0, frame = 0
 608              		@ frame_needed = 0, uses_anonymous_args = 0
 609              		@ link register save eliminated.
 554:.\Generated_Source\PSoC5/ADC_A.c **** 
 610              		.loc 1 554 0
 611 0000 034B     		ldr	r3, .L58
 612 0002 1B88     		ldrh	r3, [r3]
 613              	.LVL42:
 556:.\Generated_Source\PSoC5/ADC_A.c **** }
 614              		.loc 1 556 0
 615 0004 034A     		ldr	r2, .L58+4
 616 0006 1088     		ldrh	r0, [r2]
 617 0008 181A     		subs	r0, r3, r0
 557:.\Generated_Source\PSoC5/ADC_A.c **** 
 618              		.loc 1 557 0
 619 000a 00B2     		sxth	r0, r0
 620 000c 7047     		bx	lr
 621              	.L59:
 622 000e 00BF     		.align	2
 623              	.L58:
ARM GAS  C:\Users\Thomas\AppData\Local\Temp\ccgueSla.s 			page 25


 624 0010 A05B0040 		.word	1073765280
 625 0014 00000000 		.word	ADC_A_shift
 626              		.cfi_endproc
 627              	.LFE10:
 628              		.size	ADC_A_GetResult16, .-ADC_A_GetResult16
 629              		.section	.text.ADC_A_SetOffset,"ax",%progbits
 630              		.align	2
 631              		.global	ADC_A_SetOffset
 632              		.thumb
 633              		.thumb_func
 634              		.type	ADC_A_SetOffset, %function
 635              	ADC_A_SetOffset:
 636              	.LFB11:
 586:.\Generated_Source\PSoC5/ADC_A.c ****     ADC_A_offset = offset;
 637              		.loc 1 586 0
 638              		.cfi_startproc
 639              		@ args = 0, pretend = 0, frame = 0
 640              		@ frame_needed = 0, uses_anonymous_args = 0
 641              		@ link register save eliminated.
 642              	.LVL43:
 587:.\Generated_Source\PSoC5/ADC_A.c **** }
 643              		.loc 1 587 0
 644 0000 014B     		ldr	r3, .L61
 645 0002 1880     		strh	r0, [r3]	@ movhi
 646 0004 7047     		bx	lr
 647              	.L62:
 648 0006 00BF     		.align	2
 649              	.L61:
 650 0008 00000000 		.word	ADC_A_offset
 651              		.cfi_endproc
 652              	.LFE11:
 653              		.size	ADC_A_SetOffset, .-ADC_A_SetOffset
 654              		.section	.text.ADC_A_SetGain,"ax",%progbits
 655              		.align	2
 656              		.global	ADC_A_SetGain
 657              		.thumb
 658              		.thumb_func
 659              		.type	ADC_A_SetGain, %function
 660              	ADC_A_SetGain:
 661              	.LFB13:
 667:.\Generated_Source\PSoC5/ADC_A.c ****     #endif /* End ADC_A_DEFAULT_RANGE */
 668:.\Generated_Source\PSoC5/ADC_A.c **** }
 669:.\Generated_Source\PSoC5/ADC_A.c **** 
 670:.\Generated_Source\PSoC5/ADC_A.c **** 
 671:.\Generated_Source\PSoC5/ADC_A.c **** /*******************************************************************************
 672:.\Generated_Source\PSoC5/ADC_A.c **** * Function Name: ADC_A_SetGain
 673:.\Generated_Source\PSoC5/ADC_A.c **** ********************************************************************************
 674:.\Generated_Source\PSoC5/ADC_A.c **** *
 675:.\Generated_Source\PSoC5/ADC_A.c **** * Summary:
 676:.\Generated_Source\PSoC5/ADC_A.c **** *  Sets the ADC gain in counts per volt for the voltage conversion functions
 677:.\Generated_Source\PSoC5/ADC_A.c **** *  that follow. This value is set by default by the reference and input range
 678:.\Generated_Source\PSoC5/ADC_A.c **** *  settings. It should only be used to further calibrate the ADC with a known
 679:.\Generated_Source\PSoC5/ADC_A.c **** *  input or if the ADC is using an external reference.
 680:.\Generated_Source\PSoC5/ADC_A.c **** *
 681:.\Generated_Source\PSoC5/ADC_A.c **** * Parameters:
 682:.\Generated_Source\PSoC5/ADC_A.c **** *  int16 adcGain counts per volt
 683:.\Generated_Source\PSoC5/ADC_A.c **** *
ARM GAS  C:\Users\Thomas\AppData\Local\Temp\ccgueSla.s 			page 26


 684:.\Generated_Source\PSoC5/ADC_A.c **** * Return:
 685:.\Generated_Source\PSoC5/ADC_A.c **** *  None.
 686:.\Generated_Source\PSoC5/ADC_A.c **** *
 687:.\Generated_Source\PSoC5/ADC_A.c **** * Global Variables:
 688:.\Generated_Source\PSoC5/ADC_A.c **** *  ADC_A_countsPer10Volt variable modified. This variable is used
 689:.\Generated_Source\PSoC5/ADC_A.c **** *  for gain calibration purpose.
 690:.\Generated_Source\PSoC5/ADC_A.c **** *
 691:.\Generated_Source\PSoC5/ADC_A.c **** *******************************************************************************/
 692:.\Generated_Source\PSoC5/ADC_A.c **** void ADC_A_SetGain(int16 adcGain)
 693:.\Generated_Source\PSoC5/ADC_A.c **** {
 662              		.loc 1 693 0
 663              		.cfi_startproc
 664              		@ args = 0, pretend = 0, frame = 0
 665              		@ frame_needed = 0, uses_anonymous_args = 0
 666              		@ link register save eliminated.
 667              	.LVL44:
 694:.\Generated_Source\PSoC5/ADC_A.c ****     ADC_A_countsPer10Volt = (int32)adcGain * 10;
 668              		.loc 1 694 0
 669 0000 00EB8000 		add	r0, r0, r0, lsl #2
 670              	.LVL45:
 671 0004 4000     		lsls	r0, r0, #1
 672 0006 014B     		ldr	r3, .L64
 673 0008 1860     		str	r0, [r3]
 674 000a 7047     		bx	lr
 675              	.L65:
 676              		.align	2
 677              	.L64:
 678 000c 00000000 		.word	ADC_A_countsPer10Volt
 679              		.cfi_endproc
 680              	.LFE13:
 681              		.size	ADC_A_SetGain, .-ADC_A_SetGain
 682              		.section	.text.ADC_A_SetScaledGain,"ax",%progbits
 683              		.align	2
 684              		.global	ADC_A_SetScaledGain
 685              		.thumb
 686              		.thumb_func
 687              		.type	ADC_A_SetScaledGain, %function
 688              	ADC_A_SetScaledGain:
 689              	.LFB14:
 695:.\Generated_Source\PSoC5/ADC_A.c **** }
 696:.\Generated_Source\PSoC5/ADC_A.c **** 
 697:.\Generated_Source\PSoC5/ADC_A.c **** 
 698:.\Generated_Source\PSoC5/ADC_A.c **** /*******************************************************************************
 699:.\Generated_Source\PSoC5/ADC_A.c **** * Function Name: ADC_A_SetScaledGain
 700:.\Generated_Source\PSoC5/ADC_A.c **** ********************************************************************************
 701:.\Generated_Source\PSoC5/ADC_A.c **** *
 702:.\Generated_Source\PSoC5/ADC_A.c **** * Summary:
 703:.\Generated_Source\PSoC5/ADC_A.c **** *  Sets the ADC gain in counts per 10 volt for the voltage conversion functions
 704:.\Generated_Source\PSoC5/ADC_A.c **** *  that follow. This value is set by default by the reference and input range
 705:.\Generated_Source\PSoC5/ADC_A.c **** *  settings. It should only be used to further calibrate the ADC with a known
 706:.\Generated_Source\PSoC5/ADC_A.c **** *  input or if the ADC is using an external reference.
 707:.\Generated_Source\PSoC5/ADC_A.c **** *
 708:.\Generated_Source\PSoC5/ADC_A.c **** * Parameters:
 709:.\Generated_Source\PSoC5/ADC_A.c **** *  int32 adcGain  counts per 10 volt
 710:.\Generated_Source\PSoC5/ADC_A.c **** *
 711:.\Generated_Source\PSoC5/ADC_A.c **** * Return:
 712:.\Generated_Source\PSoC5/ADC_A.c **** *  None.
ARM GAS  C:\Users\Thomas\AppData\Local\Temp\ccgueSla.s 			page 27


 713:.\Generated_Source\PSoC5/ADC_A.c **** *
 714:.\Generated_Source\PSoC5/ADC_A.c **** * Global Variables:
 715:.\Generated_Source\PSoC5/ADC_A.c **** *  ADC_A_countsPer10Volt variable modified. This variable is used
 716:.\Generated_Source\PSoC5/ADC_A.c **** *  for gain calibration purpose.
 717:.\Generated_Source\PSoC5/ADC_A.c **** *
 718:.\Generated_Source\PSoC5/ADC_A.c **** *******************************************************************************/
 719:.\Generated_Source\PSoC5/ADC_A.c **** void ADC_A_SetScaledGain(int32 adcGain)
 720:.\Generated_Source\PSoC5/ADC_A.c **** {
 690              		.loc 1 720 0
 691              		.cfi_startproc
 692              		@ args = 0, pretend = 0, frame = 0
 693              		@ frame_needed = 0, uses_anonymous_args = 0
 694              		@ link register save eliminated.
 695              	.LVL46:
 721:.\Generated_Source\PSoC5/ADC_A.c ****     ADC_A_countsPer10Volt = adcGain;
 696              		.loc 1 721 0
 697 0000 014B     		ldr	r3, .L67
 698 0002 1860     		str	r0, [r3]
 699 0004 7047     		bx	lr
 700              	.L68:
 701 0006 00BF     		.align	2
 702              	.L67:
 703 0008 00000000 		.word	ADC_A_countsPer10Volt
 704              		.cfi_endproc
 705              	.LFE14:
 706              		.size	ADC_A_SetScaledGain, .-ADC_A_SetScaledGain
 707              		.section	.text.ADC_A_CountsTo_mVolts,"ax",%progbits
 708              		.align	2
 709              		.global	ADC_A_CountsTo_mVolts
 710              		.thumb
 711              		.thumb_func
 712              		.type	ADC_A_CountsTo_mVolts, %function
 713              	ADC_A_CountsTo_mVolts:
 714              	.LFB15:
 722:.\Generated_Source\PSoC5/ADC_A.c **** }
 723:.\Generated_Source\PSoC5/ADC_A.c **** 
 724:.\Generated_Source\PSoC5/ADC_A.c **** 
 725:.\Generated_Source\PSoC5/ADC_A.c **** /*******************************************************************************
 726:.\Generated_Source\PSoC5/ADC_A.c **** * Function Name: ADC_A_CountsTo_mVolts
 727:.\Generated_Source\PSoC5/ADC_A.c **** ********************************************************************************
 728:.\Generated_Source\PSoC5/ADC_A.c **** *
 729:.\Generated_Source\PSoC5/ADC_A.c **** * Summary:
 730:.\Generated_Source\PSoC5/ADC_A.c **** *  Converts the ADC output to millivolts as a 16-bit integer.
 731:.\Generated_Source\PSoC5/ADC_A.c **** *
 732:.\Generated_Source\PSoC5/ADC_A.c **** * Parameters:
 733:.\Generated_Source\PSoC5/ADC_A.c **** *  int16 adcCounts:  Result from the ADC conversion
 734:.\Generated_Source\PSoC5/ADC_A.c **** *
 735:.\Generated_Source\PSoC5/ADC_A.c **** * Return:
 736:.\Generated_Source\PSoC5/ADC_A.c **** *  int16 Result in mVolts
 737:.\Generated_Source\PSoC5/ADC_A.c **** *
 738:.\Generated_Source\PSoC5/ADC_A.c **** * Global Variables:
 739:.\Generated_Source\PSoC5/ADC_A.c **** *  ADC_A_offset variable used.
 740:.\Generated_Source\PSoC5/ADC_A.c **** *  ADC_A_countsPer10Volt variable used.
 741:.\Generated_Source\PSoC5/ADC_A.c **** *
 742:.\Generated_Source\PSoC5/ADC_A.c **** *******************************************************************************/
 743:.\Generated_Source\PSoC5/ADC_A.c **** int16 ADC_A_CountsTo_mVolts(int16 adcCounts)
 744:.\Generated_Source\PSoC5/ADC_A.c **** {
ARM GAS  C:\Users\Thomas\AppData\Local\Temp\ccgueSla.s 			page 28


 715              		.loc 1 744 0
 716              		.cfi_startproc
 717              		@ args = 0, pretend = 0, frame = 0
 718              		@ frame_needed = 0, uses_anonymous_args = 0
 719              		@ link register save eliminated.
 720              	.LVL47:
 745:.\Generated_Source\PSoC5/ADC_A.c ****     int16 mVolts;
 746:.\Generated_Source\PSoC5/ADC_A.c ****     int32 countsPer10Volt;
 747:.\Generated_Source\PSoC5/ADC_A.c **** 
 748:.\Generated_Source\PSoC5/ADC_A.c ****     if(ADC_A_countsPerVolt != 0)
 721              		.loc 1 748 0
 722 0000 114B     		ldr	r3, .L74
 723 0002 1B88     		ldrh	r3, [r3]
 724 0004 9BB2     		uxth	r3, r3
 725 0006 33B1     		cbz	r3, .L70
 749:.\Generated_Source\PSoC5/ADC_A.c ****     {   /* Support obsolete method */
 750:.\Generated_Source\PSoC5/ADC_A.c ****         countsPer10Volt = (int32)ADC_A_countsPerVolt * 10;
 726              		.loc 1 750 0
 727 0008 0F4B     		ldr	r3, .L74
 728 000a 1988     		ldrh	r1, [r3]
 729 000c 09B2     		sxth	r1, r1
 730 000e 01EB8101 		add	r1, r1, r1, lsl #2
 731 0012 4900     		lsls	r1, r1, #1
 732              	.LVL48:
 733 0014 01E0     		b	.L71
 734              	.LVL49:
 735              	.L70:
 751:.\Generated_Source\PSoC5/ADC_A.c ****     }
 752:.\Generated_Source\PSoC5/ADC_A.c ****     else
 753:.\Generated_Source\PSoC5/ADC_A.c ****     {
 754:.\Generated_Source\PSoC5/ADC_A.c ****         countsPer10Volt = ADC_A_countsPer10Volt;
 736              		.loc 1 754 0
 737 0016 0D4B     		ldr	r3, .L74+4
 738 0018 1968     		ldr	r1, [r3]
 739              	.LVL50:
 740              	.L71:
 755:.\Generated_Source\PSoC5/ADC_A.c ****     }
 756:.\Generated_Source\PSoC5/ADC_A.c **** 
 757:.\Generated_Source\PSoC5/ADC_A.c ****     /* Subtract ADC offset */
 758:.\Generated_Source\PSoC5/ADC_A.c ****     adcCounts -= ADC_A_offset;
 741              		.loc 1 758 0
 742 001a 0D4B     		ldr	r3, .L74+8
 743 001c 1A88     		ldrh	r2, [r3]
 744 001e 821A     		subs	r2, r0, r2
 745 0020 12B2     		sxth	r2, r2
 746              	.LVL51:
 759:.\Generated_Source\PSoC5/ADC_A.c ****     /* Convert to millivolts with rounding */
 760:.\Generated_Source\PSoC5/ADC_A.c ****     mVolts = (int16)( (( (int32)adcCounts * ADC_A_10MV_COUNTS ) + ( (adcCounts > 0) ?
 747              		.loc 1 760 0
 748 0022 42F21070 		movw	r0, #10000
 749 0026 00FB02F0 		mul	r0, r0, r2
 761:.\Generated_Source\PSoC5/ADC_A.c ****                        (countsPer10Volt / 2) : (-(countsPer10Volt / 2)) )) / countsPer10Volt);
 750              		.loc 1 761 0
 751 002a 002A     		cmp	r2, #0
 752 002c 03DD     		ble	.L72
 753              		.loc 1 761 0 is_stmt 0 discriminator 1
 754 002e 01EBD173 		add	r3, r1, r1, lsr #31
ARM GAS  C:\Users\Thomas\AppData\Local\Temp\ccgueSla.s 			page 29


 755 0032 5B10     		asrs	r3, r3, #1
 756 0034 03E0     		b	.L73
 757              	.L72:
 758              		.loc 1 761 0 discriminator 2
 759 0036 01EBD172 		add	r2, r1, r1, lsr #31
 760              	.LVL52:
 761 003a 5210     		asrs	r2, r2, #1
 762 003c 5342     		negs	r3, r2
 763              	.L73:
 760:.\Generated_Source\PSoC5/ADC_A.c ****                        (countsPer10Volt / 2) : (-(countsPer10Volt / 2)) )) / countsPer10Volt);
 764              		.loc 1 760 0 is_stmt 1
 765 003e 0344     		add	r3, r3, r0
 766              		.loc 1 761 0
 767 0040 93FBF1F0 		sdiv	r0, r3, r1
 768              	.LVL53:
 762:.\Generated_Source\PSoC5/ADC_A.c **** 
 763:.\Generated_Source\PSoC5/ADC_A.c ****     return( mVolts );
 764:.\Generated_Source\PSoC5/ADC_A.c **** }
 769              		.loc 1 764 0
 770 0044 00B2     		sxth	r0, r0
 771 0046 7047     		bx	lr
 772              	.L75:
 773              		.align	2
 774              	.L74:
 775 0048 00000000 		.word	ADC_A_countsPerVolt
 776 004c 00000000 		.word	ADC_A_countsPer10Volt
 777 0050 00000000 		.word	ADC_A_offset
 778              		.cfi_endproc
 779              	.LFE15:
 780              		.size	ADC_A_CountsTo_mVolts, .-ADC_A_CountsTo_mVolts
 781              		.global	__aeabi_ldivmod
 782              		.section	.text.ADC_A_CountsTo_uVolts,"ax",%progbits
 783              		.align	2
 784              		.global	ADC_A_CountsTo_uVolts
 785              		.thumb
 786              		.thumb_func
 787              		.type	ADC_A_CountsTo_uVolts, %function
 788              	ADC_A_CountsTo_uVolts:
 789              	.LFB16:
 765:.\Generated_Source\PSoC5/ADC_A.c **** 
 766:.\Generated_Source\PSoC5/ADC_A.c **** 
 767:.\Generated_Source\PSoC5/ADC_A.c **** /*******************************************************************************
 768:.\Generated_Source\PSoC5/ADC_A.c **** * Function Name: ADC_A_CountsTo_uVolts
 769:.\Generated_Source\PSoC5/ADC_A.c **** ********************************************************************************
 770:.\Generated_Source\PSoC5/ADC_A.c **** *
 771:.\Generated_Source\PSoC5/ADC_A.c **** * Summary:
 772:.\Generated_Source\PSoC5/ADC_A.c **** *  Converts the ADC output to microvolts as a 32-bit integer.
 773:.\Generated_Source\PSoC5/ADC_A.c **** *
 774:.\Generated_Source\PSoC5/ADC_A.c **** * Parameters:
 775:.\Generated_Source\PSoC5/ADC_A.c **** *  int16 adcCounts: Result from the ADC conversion
 776:.\Generated_Source\PSoC5/ADC_A.c **** *
 777:.\Generated_Source\PSoC5/ADC_A.c **** * Return:
 778:.\Generated_Source\PSoC5/ADC_A.c **** *  int32 Result in micro Volts
 779:.\Generated_Source\PSoC5/ADC_A.c **** *
 780:.\Generated_Source\PSoC5/ADC_A.c **** * Global Variables:
 781:.\Generated_Source\PSoC5/ADC_A.c **** *  ADC_A_offset variable used.
 782:.\Generated_Source\PSoC5/ADC_A.c **** *  ADC_A_countsPer10Volt used to convert ADC counts to uVolts.
ARM GAS  C:\Users\Thomas\AppData\Local\Temp\ccgueSla.s 			page 30


 783:.\Generated_Source\PSoC5/ADC_A.c **** *
 784:.\Generated_Source\PSoC5/ADC_A.c **** *******************************************************************************/
 785:.\Generated_Source\PSoC5/ADC_A.c **** int32 ADC_A_CountsTo_uVolts(int16 adcCounts)
 786:.\Generated_Source\PSoC5/ADC_A.c **** {
 790              		.loc 1 786 0
 791              		.cfi_startproc
 792              		@ args = 0, pretend = 0, frame = 0
 793              		@ frame_needed = 0, uses_anonymous_args = 0
 794              	.LVL54:
 795 0000 38B5     		push	{r3, r4, r5, lr}
 796              		.cfi_def_cfa_offset 16
 797              		.cfi_offset 3, -16
 798              		.cfi_offset 4, -12
 799              		.cfi_offset 5, -8
 800              		.cfi_offset 14, -4
 787:.\Generated_Source\PSoC5/ADC_A.c **** 
 788:.\Generated_Source\PSoC5/ADC_A.c ****     int64 uVolts;
 789:.\Generated_Source\PSoC5/ADC_A.c ****     int32 countsPer10Volt;
 790:.\Generated_Source\PSoC5/ADC_A.c **** 
 791:.\Generated_Source\PSoC5/ADC_A.c ****     if(ADC_A_countsPerVolt != 0)
 801              		.loc 1 791 0
 802 0002 0D4B     		ldr	r3, .L80
 803 0004 1B88     		ldrh	r3, [r3]
 804 0006 9BB2     		uxth	r3, r3
 805 0008 33B1     		cbz	r3, .L77
 792:.\Generated_Source\PSoC5/ADC_A.c ****     {   /* Support obsolete method */
 793:.\Generated_Source\PSoC5/ADC_A.c ****         countsPer10Volt = (int32)ADC_A_countsPerVolt * 10;
 806              		.loc 1 793 0
 807 000a 0B4B     		ldr	r3, .L80
 808 000c 1A88     		ldrh	r2, [r3]
 809 000e 12B2     		sxth	r2, r2
 810 0010 02EB8202 		add	r2, r2, r2, lsl #2
 811 0014 5200     		lsls	r2, r2, #1
 812              	.LVL55:
 813 0016 01E0     		b	.L78
 814              	.LVL56:
 815              	.L77:
 794:.\Generated_Source\PSoC5/ADC_A.c ****     }
 795:.\Generated_Source\PSoC5/ADC_A.c ****     else
 796:.\Generated_Source\PSoC5/ADC_A.c ****     {
 797:.\Generated_Source\PSoC5/ADC_A.c ****         countsPer10Volt = ADC_A_countsPer10Volt;
 816              		.loc 1 797 0
 817 0018 084B     		ldr	r3, .L80+4
 818 001a 1A68     		ldr	r2, [r3]
 819              	.LVL57:
 820              	.L78:
 798:.\Generated_Source\PSoC5/ADC_A.c ****     }
 799:.\Generated_Source\PSoC5/ADC_A.c **** 
 800:.\Generated_Source\PSoC5/ADC_A.c ****     /* Subtract ADC offset */
 801:.\Generated_Source\PSoC5/ADC_A.c ****     adcCounts -= ADC_A_offset;
 821              		.loc 1 801 0
 822 001c 084B     		ldr	r3, .L80+8
 823 001e 1C88     		ldrh	r4, [r3]
 824              	.LVL58:
 802:.\Generated_Source\PSoC5/ADC_A.c ****     /* To convert adcCounts to microVolts it is required to be multiplied
 803:.\Generated_Source\PSoC5/ADC_A.c ****     *  on 10 million and later divide on gain in counts per 10V.
 804:.\Generated_Source\PSoC5/ADC_A.c ****     */
ARM GAS  C:\Users\Thomas\AppData\Local\Temp\ccgueSla.s 			page 31


 805:.\Generated_Source\PSoC5/ADC_A.c ****     uVolts = (( (int64)adcCounts * ADC_A_10UV_COUNTS ) / countsPer10Volt);
 825              		.loc 1 805 0
 826 0020 041B     		subs	r4, r0, r4
 827              	.LVL59:
 828 0022 24B2     		sxth	r4, r4
 829 0024 E517     		asrs	r5, r4, #31
 830 0026 074B     		ldr	r3, .L80+12
 831 0028 A4FB0301 		umull	r0, r1, r4, r3
 832 002c 03FB0511 		mla	r1, r3, r5, r1
 833 0030 D317     		asrs	r3, r2, #31
 834 0032 FFF7FEFF 		bl	__aeabi_ldivmod
 835              	.LVL60:
 806:.\Generated_Source\PSoC5/ADC_A.c **** 
 807:.\Generated_Source\PSoC5/ADC_A.c ****     return( uVolts );
 808:.\Generated_Source\PSoC5/ADC_A.c **** }
 836              		.loc 1 808 0
 837 0036 38BD     		pop	{r3, r4, r5, pc}
 838              	.L81:
 839              		.align	2
 840              	.L80:
 841 0038 00000000 		.word	ADC_A_countsPerVolt
 842 003c 00000000 		.word	ADC_A_countsPer10Volt
 843 0040 00000000 		.word	ADC_A_offset
 844 0044 80969800 		.word	10000000
 845              		.cfi_endproc
 846              	.LFE16:
 847              		.size	ADC_A_CountsTo_uVolts, .-ADC_A_CountsTo_uVolts
 848              		.global	__aeabi_i2f
 849              		.global	__aeabi_fmul
 850              		.global	__aeabi_fdiv
 851              		.section	.text.ADC_A_CountsTo_Volts,"ax",%progbits
 852              		.align	2
 853              		.global	ADC_A_CountsTo_Volts
 854              		.thumb
 855              		.thumb_func
 856              		.type	ADC_A_CountsTo_Volts, %function
 857              	ADC_A_CountsTo_Volts:
 858              	.LFB17:
 809:.\Generated_Source\PSoC5/ADC_A.c **** 
 810:.\Generated_Source\PSoC5/ADC_A.c **** 
 811:.\Generated_Source\PSoC5/ADC_A.c **** /*******************************************************************************
 812:.\Generated_Source\PSoC5/ADC_A.c **** * Function Name: ADC_A_CountsTo_Volts
 813:.\Generated_Source\PSoC5/ADC_A.c **** ********************************************************************************
 814:.\Generated_Source\PSoC5/ADC_A.c **** *
 815:.\Generated_Source\PSoC5/ADC_A.c **** * Summary:
 816:.\Generated_Source\PSoC5/ADC_A.c **** *  Converts the ADC output to volts as a floating-point number.
 817:.\Generated_Source\PSoC5/ADC_A.c **** *
 818:.\Generated_Source\PSoC5/ADC_A.c **** * Parameters:
 819:.\Generated_Source\PSoC5/ADC_A.c **** *  int16 adcCounts: Result from the ADC conversion
 820:.\Generated_Source\PSoC5/ADC_A.c **** *
 821:.\Generated_Source\PSoC5/ADC_A.c **** * Return:
 822:.\Generated_Source\PSoC5/ADC_A.c **** *  float Result in Volts
 823:.\Generated_Source\PSoC5/ADC_A.c **** *
 824:.\Generated_Source\PSoC5/ADC_A.c **** * Global Variables:
 825:.\Generated_Source\PSoC5/ADC_A.c **** *  ADC_A_offset variable used.
 826:.\Generated_Source\PSoC5/ADC_A.c **** *  ADC_A_countsPer10Volt used to convert ADC counts to Volts.
 827:.\Generated_Source\PSoC5/ADC_A.c **** *
ARM GAS  C:\Users\Thomas\AppData\Local\Temp\ccgueSla.s 			page 32


 828:.\Generated_Source\PSoC5/ADC_A.c **** *******************************************************************************/
 829:.\Generated_Source\PSoC5/ADC_A.c **** float32 ADC_A_CountsTo_Volts(int16 adcCounts)
 830:.\Generated_Source\PSoC5/ADC_A.c **** {
 859              		.loc 1 830 0
 860              		.cfi_startproc
 861              		@ args = 0, pretend = 0, frame = 0
 862              		@ frame_needed = 0, uses_anonymous_args = 0
 863              	.LVL61:
 864 0000 38B5     		push	{r3, r4, r5, lr}
 865              		.cfi_def_cfa_offset 16
 866              		.cfi_offset 3, -16
 867              		.cfi_offset 4, -12
 868              		.cfi_offset 5, -8
 869              		.cfi_offset 14, -4
 831:.\Generated_Source\PSoC5/ADC_A.c ****     float32 volts;
 832:.\Generated_Source\PSoC5/ADC_A.c ****     int32 countsPer10Volt;
 833:.\Generated_Source\PSoC5/ADC_A.c **** 
 834:.\Generated_Source\PSoC5/ADC_A.c ****     if(ADC_A_countsPerVolt != 0)
 870              		.loc 1 834 0
 871 0002 0F4B     		ldr	r3, .L86
 872 0004 1B88     		ldrh	r3, [r3]
 873 0006 9BB2     		uxth	r3, r3
 874 0008 33B1     		cbz	r3, .L83
 835:.\Generated_Source\PSoC5/ADC_A.c ****     {   /* Support obsolete method */
 836:.\Generated_Source\PSoC5/ADC_A.c ****         countsPer10Volt = (int32)ADC_A_countsPerVolt * 10;
 875              		.loc 1 836 0
 876 000a 0D4B     		ldr	r3, .L86
 877 000c 1C88     		ldrh	r4, [r3]
 878 000e 24B2     		sxth	r4, r4
 879 0010 04EB8404 		add	r4, r4, r4, lsl #2
 880 0014 6400     		lsls	r4, r4, #1
 881              	.LVL62:
 882 0016 01E0     		b	.L84
 883              	.LVL63:
 884              	.L83:
 837:.\Generated_Source\PSoC5/ADC_A.c ****     }
 838:.\Generated_Source\PSoC5/ADC_A.c ****     else
 839:.\Generated_Source\PSoC5/ADC_A.c ****     {
 840:.\Generated_Source\PSoC5/ADC_A.c ****         countsPer10Volt = ADC_A_countsPer10Volt;
 885              		.loc 1 840 0
 886 0018 0A4B     		ldr	r3, .L86+4
 887 001a 1C68     		ldr	r4, [r3]
 888              	.LVL64:
 889              	.L84:
 841:.\Generated_Source\PSoC5/ADC_A.c ****     }
 842:.\Generated_Source\PSoC5/ADC_A.c **** 
 843:.\Generated_Source\PSoC5/ADC_A.c ****     /* Subtract ADC offset */
 844:.\Generated_Source\PSoC5/ADC_A.c ****     adcCounts -= ADC_A_offset;
 890              		.loc 1 844 0
 891 001c 0A4B     		ldr	r3, .L86+8
 892 001e 1B88     		ldrh	r3, [r3]
 893 0020 C01A     		subs	r0, r0, r3
 894              	.LVL65:
 845:.\Generated_Source\PSoC5/ADC_A.c **** 
 846:.\Generated_Source\PSoC5/ADC_A.c ****     volts = ((float32)adcCounts * ADC_A_10V_COUNTS) / (float32)countsPer10Volt;
 895              		.loc 1 846 0
 896 0022 00B2     		sxth	r0, r0
ARM GAS  C:\Users\Thomas\AppData\Local\Temp\ccgueSla.s 			page 33


 897 0024 FFF7FEFF 		bl	__aeabi_i2f
 898              	.LVL66:
 899 0028 0849     		ldr	r1, .L86+12
 900 002a FFF7FEFF 		bl	__aeabi_fmul
 901              	.LVL67:
 902 002e 0546     		mov	r5, r0
 903 0030 2046     		mov	r0, r4
 904 0032 FFF7FEFF 		bl	__aeabi_i2f
 905              	.LVL68:
 906 0036 0146     		mov	r1, r0
 907 0038 2846     		mov	r0, r5
 908 003a FFF7FEFF 		bl	__aeabi_fdiv
 909              	.LVL69:
 847:.\Generated_Source\PSoC5/ADC_A.c **** 
 848:.\Generated_Source\PSoC5/ADC_A.c ****     return( volts );
 849:.\Generated_Source\PSoC5/ADC_A.c **** }
 910              		.loc 1 849 0
 911 003e 38BD     		pop	{r3, r4, r5, pc}
 912              	.LVL70:
 913              	.L87:
 914              		.align	2
 915              	.L86:
 916 0040 00000000 		.word	ADC_A_countsPerVolt
 917 0044 00000000 		.word	ADC_A_countsPer10Volt
 918 0048 00000000 		.word	ADC_A_offset
 919 004c 00002041 		.word	1092616192
 920              		.cfi_endproc
 921              	.LFE17:
 922              		.size	ADC_A_CountsTo_Volts, .-ADC_A_CountsTo_Volts
 923              		.comm	ADC_A_shift,2,2
 924              		.comm	ADC_A_countsPer10Volt,4,4
 925              		.comm	ADC_A_countsPerVolt,2,2
 926              		.comm	ADC_A_offset,2,2
 927              		.global	ADC_A_initVar
 928              		.bss
 929              		.set	.LANCHOR0,. + 0
 930              		.type	ADC_A_initVar, %object
 931              		.size	ADC_A_initVar, 1
 932              	ADC_A_initVar:
 933 0000 00       		.space	1
 934              		.text
 935              	.Letext0:
 936              		.file 2 ".\\Generated_Source\\PSoC5\\cytypes.h"
 937              		.file 3 ".\\Generated_Source\\PSoC5\\CyLib.h"
 938              		.file 4 ".\\Generated_Source\\PSoC5\\ADC_A_theACLK.h"