ARM GAS  C:\Users\Thomas\AppData\Local\Temp\ccXxkjXW.s 			page 1


   1              		.syntax unified
   2              		.cpu cortex-m3
   3              		.fpu softvfp
   4              		.eabi_attribute 20, 1
   5              		.eabi_attribute 21, 1
   6              		.eabi_attribute 23, 3
   7              		.eabi_attribute 24, 1
   8              		.eabi_attribute 25, 1
   9              		.eabi_attribute 26, 1
  10              		.eabi_attribute 30, 1
  11              		.eabi_attribute 34, 1
  12              		.eabi_attribute 18, 4
  13              		.thumb
  14              		.file	"ControllerClass.c"
  15              		.text
  16              	.Ltext0:
  17              		.cfi_sections	.debug_frame
  18              		.section	.text.init,"ax",%progbits
  19              		.align	2
  20              		.global	init
  21              		.thumb
  22              		.thumb_func
  23              		.type	init, %function
  24              	init:
  25              	.LFB63:
  26              		.file 1 ".\\ControllerClass.c"
   1:.\ControllerClass.c **** /* ========================================
   2:.\ControllerClass.c ****  *
   3:.\ControllerClass.c ****  * Copyright YOUR COMPANY, THE YEAR
   4:.\ControllerClass.c ****  * All Rights Reserved
   5:.\ControllerClass.c ****  * UNPUBLISHED, LICENSED SOFTWARE.
   6:.\ControllerClass.c ****  *
   7:.\ControllerClass.c ****  * CONFIDENTIAL AND PROPRIETARY INFORMATION
   8:.\ControllerClass.c ****  * WHICH IS THE PROPERTY OF your company.
   9:.\ControllerClass.c ****  *
  10:.\ControllerClass.c ****  * ========================================
  11:.\ControllerClass.c **** */
  12:.\ControllerClass.c **** #include "ControllerClass.h"
  13:.\ControllerClass.c **** 
  14:.\ControllerClass.c **** struct BMSData * BMSdata; //Ik' tænk over hvordan det virker, det gøre det bare ;)
  15:.\ControllerClass.c **** 
  16:.\ControllerClass.c **** 
  17:.\ControllerClass.c **** void init()
  18:.\ControllerClass.c **** {
  27              		.loc 1 18 0
  28              		.cfi_startproc
  29              		@ args = 0, pretend = 0, frame = 48
  30              		@ frame_needed = 0, uses_anonymous_args = 0
  31 0000 00B5     		push	{lr}
  32              		.cfi_def_cfa_offset 4
  33              		.cfi_offset 14, -4
  34 0002 8DB0     		sub	sp, sp, #52
  35              		.cfi_def_cfa_offset 56
  19:.\ControllerClass.c ****     struct PIDparameter PID;
  20:.\ControllerClass.c ****     size_t sizes[] = {sizeof(struct PIDparameter), sizeof(int16[2])};
  36              		.loc 1 20 0
  37 0004 234A     		ldr	r2, .L6
ARM GAS  C:\Users\Thomas\AppData\Local\Temp\ccXxkjXW.s 			page 2


  38 0006 02AB     		add	r3, sp, #8
  39 0008 92E80300 		ldmia	r2, {r0, r1}
  40 000c 83E80300 		stmia	r3, {r0, r1}
  21:.\ControllerClass.c ****     EEPROM_init(sizes, 2);
  41              		.loc 1 21 0
  42 0010 1846     		mov	r0, r3
  43 0012 0221     		movs	r1, #2
  44 0014 FFF7FEFF 		bl	EEPROM_init
  45              	.LVL0:
  22:.\ControllerClass.c ****     
  23:.\ControllerClass.c ****     if(EEPROM_read(0, (uint8 *)&PID) == 0)
  46              		.loc 1 23 0
  47 0018 0020     		movs	r0, #0
  48 001a 04A9     		add	r1, sp, #16
  49 001c FFF7FEFF 		bl	EEPROM_read
  50              	.LVL1:
  51 0020 68B9     		cbnz	r0, .L2
  24:.\ControllerClass.c ****     {
  25:.\ControllerClass.c ****         PID.Kp = 1;
  52              		.loc 1 25 0
  53 0022 0123     		movs	r3, #1
  54 0024 0493     		str	r3, [sp, #16]
  26:.\ControllerClass.c ****         PID.Ki = 0;
  55              		.loc 1 26 0
  56 0026 0590     		str	r0, [sp, #20]
  27:.\ControllerClass.c ****         PID.Kd = 0;
  57              		.loc 1 27 0
  58 0028 0690     		str	r0, [sp, #24]
  28:.\ControllerClass.c ****         PID.KShift = 0;
  59              		.loc 1 28 0
  60 002a 0790     		str	r0, [sp, #28]
  29:.\ControllerClass.c ****         PID.MAX = 255;
  61              		.loc 1 29 0
  62 002c FF22     		movs	r2, #255
  63 002e 0892     		str	r2, [sp, #32]
  30:.\ControllerClass.c ****         PID.MIN = 0;
  64              		.loc 1 30 0
  65 0030 0990     		str	r0, [sp, #36]
  31:.\ControllerClass.c ****         PID.preShift = 0;
  66              		.loc 1 31 0
  67 0032 0A90     		str	r0, [sp, #40]
  32:.\ControllerClass.c ****         PID.valid = 1;
  68              		.loc 1 32 0
  69 0034 8DF82C30 		strb	r3, [sp, #44]
  33:.\ControllerClass.c ****         EEPROM_write(0, (const uint8 *)&PID);
  70              		.loc 1 33 0
  71 0038 04A9     		add	r1, sp, #16
  72 003a FFF7FEFF 		bl	EEPROM_write
  73              	.LVL2:
  74              	.L2:
  34:.\ControllerClass.c ****     }
  35:.\ControllerClass.c ****     
  36:.\ControllerClass.c ****     int16 offset[2];
  37:.\ControllerClass.c ****     if(EEPROM_read(1, (uint8 *)offset) == 0)
  75              		.loc 1 37 0
  76 003e 0120     		movs	r0, #1
  77 0040 01A9     		add	r1, sp, #4
ARM GAS  C:\Users\Thomas\AppData\Local\Temp\ccXxkjXW.s 			page 3


  78 0042 FFF7FEFF 		bl	EEPROM_read
  79              	.LVL3:
  80 0046 60B9     		cbnz	r0, .L3
  38:.\ControllerClass.c ****     {
  39:.\ControllerClass.c ****         effectSensor_init(0, 0);
  81              		.loc 1 39 0
  82 0048 0146     		mov	r1, r0
  83 004a FFF7FEFF 		bl	effectSensor_init
  84              	.LVL4:
  40:.\ControllerClass.c ****         effectSensor_calibrate(&offset[0], &offset[1]);
  85              		.loc 1 40 0
  86 004e 01A8     		add	r0, sp, #4
  87 0050 0DF10601 		add	r1, sp, #6
  88 0054 FFF7FEFF 		bl	effectSensor_calibrate
  89              	.LVL5:
  41:.\ControllerClass.c ****         EEPROM_write(1, (uint8 *)offset);
  90              		.loc 1 41 0
  91 0058 0120     		movs	r0, #1
  92 005a 01A9     		add	r1, sp, #4
  93 005c FFF7FEFF 		bl	EEPROM_write
  94              	.LVL6:
  95 0060 05E0     		b	.L4
  96              	.L3:
  42:.\ControllerClass.c ****     }
  43:.\ControllerClass.c ****     else
  44:.\ControllerClass.c ****     {
  45:.\ControllerClass.c ****         effectSensor_init(offset[0], offset[1]); 
  97              		.loc 1 45 0
  98 0062 BDF90400 		ldrsh	r0, [sp, #4]
  99 0066 BDF90610 		ldrsh	r1, [sp, #6]
 100 006a FFF7FEFF 		bl	effectSensor_init
 101              	.LVL7:
 102              	.L4:
  46:.\ControllerClass.c ****     }
  47:.\ControllerClass.c **** 
  48:.\ControllerClass.c ****     RPMSensor_init();
 103              		.loc 1 48 0
 104 006e FFF7FEFF 		bl	RPMSensor_init
 105              	.LVL8:
  49:.\ControllerClass.c ****     Pedal_init();
 106              		.loc 1 49 0
 107 0072 FFF7FEFF 		bl	Pedal_init
 108              	.LVL9:
  50:.\ControllerClass.c ****     
  51:.\ControllerClass.c ****     MC_init((struct PIDparameter *)&PID);
 109              		.loc 1 51 0
 110 0076 04A8     		add	r0, sp, #16
 111 0078 FFF7FEFF 		bl	MC_init
 112              	.LVL10:
  52:.\ControllerClass.c ****     Logger_Init();
 113              		.loc 1 52 0
 114 007c FFF7FEFF 		bl	Logger_Init
 115              	.LVL11:
  53:.\ControllerClass.c ****     BMSdata = CAN_init();
 116              		.loc 1 53 0
 117 0080 FFF7FEFF 		bl	CAN_init
 118              	.LVL12:
ARM GAS  C:\Users\Thomas\AppData\Local\Temp\ccXxkjXW.s 			page 4


 119 0084 044B     		ldr	r3, .L6+4
 120 0086 1860     		str	r0, [r3]
  54:.\ControllerClass.c ****     Clock_3_Start();
 121              		.loc 1 54 0
 122 0088 FFF7FEFF 		bl	Clock_3_Start
 123              	.LVL13:
  55:.\ControllerClass.c **** }
 124              		.loc 1 55 0
 125 008c 0DB0     		add	sp, sp, #52
 126              		.cfi_def_cfa_offset 4
 127              		@ sp needed
 128 008e 5DF804FB 		ldr	pc, [sp], #4
 129              	.L7:
 130 0092 00BF     		.align	2
 131              	.L6:
 132 0094 00000000 		.word	.LANCHOR0
 133 0098 00000000 		.word	BMSdata
 134              		.cfi_endproc
 135              	.LFE63:
 136              		.size	init, .-init
 137              		.section	.text.run,"ax",%progbits
 138              		.align	2
 139              		.global	run
 140              		.thumb
 141              		.thumb_func
 142              		.type	run, %function
 143              	run:
 144              	.LFB64:
  56:.\ControllerClass.c **** 
  57:.\ControllerClass.c **** 
  58:.\ControllerClass.c **** struct dataSample
  59:.\ControllerClass.c **** {
  60:.\ControllerClass.c ****     int16 MC_volt;
  61:.\ControllerClass.c ****     int16 MC_current;
  62:.\ControllerClass.c **** };
  63:.\ControllerClass.c **** 
  64:.\ControllerClass.c **** void run()
  65:.\ControllerClass.c **** {
 145              		.loc 1 65 0
 146              		.cfi_startproc
 147              		@ args = 0, pretend = 0, frame = 24
 148              		@ frame_needed = 0, uses_anonymous_args = 0
 149 0000 2DE9F04F 		push	{r4, r5, r6, r7, r8, r9, r10, fp, lr}
 150              		.cfi_def_cfa_offset 36
 151              		.cfi_offset 4, -36
 152              		.cfi_offset 5, -32
 153              		.cfi_offset 6, -28
 154              		.cfi_offset 7, -24
 155              		.cfi_offset 8, -20
 156              		.cfi_offset 9, -16
 157              		.cfi_offset 10, -12
 158              		.cfi_offset 11, -8
 159              		.cfi_offset 14, -4
 160 0004 93B0     		sub	sp, sp, #76
 161              		.cfi_def_cfa_offset 112
  66:.\ControllerClass.c ****     Pedal_update();
 162              		.loc 1 66 0
ARM GAS  C:\Users\Thomas\AppData\Local\Temp\ccXxkjXW.s 			page 5


 163 0006 FFF7FEFF 		bl	Pedal_update
 164              	.LVL14:
  67:.\ControllerClass.c ****     if(BMSdata->NewData == 0b00111111)
 165              		.loc 1 67 0
 166 000a 204B     		ldr	r3, .L11
 167 000c 1B68     		ldr	r3, [r3]
 168 000e DA7D     		ldrb	r2, [r3, #23]	@ zero_extendqisi2
 169 0010 3F2A     		cmp	r2, #63
 170 0012 37D1     		bne	.L8
  68:.\ControllerClass.c ****     {
  69:.\ControllerClass.c ****         Logger_LogData(1,
  70:.\ControllerClass.c ****             BMSdata->battery_V,
 171              		.loc 1 70 0
 172 0014 9A88     		ldrh	r2, [r3, #4]
 173 0016 0C92     		str	r2, [sp, #48]
  71:.\ControllerClass.c ****             BMSdata->battery_cell_no_max,
 174              		.loc 1 71 0
 175 0018 187A     		ldrb	r0, [r3, #8]	@ zero_extendqisi2
 176 001a 0D90     		str	r0, [sp, #52]
  72:.\ControllerClass.c ****             BMSdata->battery_cell_V_max,
 177              		.loc 1 72 0
 178 001c 5C7A     		ldrb	r4, [r3, #9]	@ zero_extendqisi2
 179 001e 0E94     		str	r4, [sp, #56]
  73:.\ControllerClass.c ****             BMSdata->battery_cell_no_min,
 180              		.loc 1 73 0
 181 0020 93F806B0 		ldrb	fp, [r3, #6]	@ zero_extendqisi2
  74:.\ControllerClass.c ****             BMSdata->battery_cell_V_min,
 182              		.loc 1 74 0
 183 0024 93F807A0 		ldrb	r10, [r3, #7]	@ zero_extendqisi2
  75:.\ControllerClass.c ****             BMSdata->battery_A,
 184              		.loc 1 75 0
 185 0028 B3F80A90 		ldrh	r9, [r3, #10]
  76:.\ControllerClass.c ****             BMSdata->IR_no_max,
 186              		.loc 1 76 0
 187 002c 93F81580 		ldrb	r8, [r3, #21]	@ zero_extendqisi2
  77:.\ControllerClass.c ****             BMSdata->IR_max,
 188              		.loc 1 77 0
 189 0030 9F7D     		ldrb	r7, [r3, #22]	@ zero_extendqisi2
  78:.\ControllerClass.c ****             BMSdata->IR_no_min,
 190              		.loc 1 78 0
 191 0032 DE7C     		ldrb	r6, [r3, #19]	@ zero_extendqisi2
  79:.\ControllerClass.c ****             BMSdata->IR_min,
 192              		.loc 1 79 0
 193 0034 1D7D     		ldrb	r5, [r3, #20]	@ zero_extendqisi2
  80:.\ControllerClass.c ****             BMSdata->Tbatt,
 194              		.loc 1 80 0
 195 0036 997C     		ldrb	r1, [r3, #18]	@ zero_extendqisi2
 196 0038 0F91     		str	r1, [sp, #60]
  81:.\ControllerClass.c ****             BMSdata->state,
 197              		.loc 1 81 0
 198 003a 1878     		ldrb	r0, [r3]	@ zero_extendqisi2
 199 003c 1090     		str	r0, [sp, #64]
  82:.\ControllerClass.c ****             BMSdata->RunTime,
 200              		.loc 1 82 0
 201 003e 5C88     		ldrh	r4, [r3, #2]
  83:.\ControllerClass.c ****             RPMSensor_getSpeed(),
 202              		.loc 1 83 0
ARM GAS  C:\Users\Thomas\AppData\Local\Temp\ccXxkjXW.s 			page 6


 203 0040 FFF7FEFF 		bl	RPMSensor_getSpeed
 204              	.LVL15:
 205 0044 1190     		str	r0, [sp, #68]
  84:.\ControllerClass.c ****             effectSensor_getValue()
 206              		.loc 1 84 0
 207 0046 FFF7FEFF 		bl	effectSensor_getValue
 208              	.LVL16:
  69:.\ControllerClass.c ****             BMSdata->battery_V,
 209              		.loc 1 69 0
 210 004a CDF800B0 		str	fp, [sp]
 211 004e CDF804A0 		str	r10, [sp, #4]
 212 0052 CDF80890 		str	r9, [sp, #8]
 213 0056 CDF80C80 		str	r8, [sp, #12]
 214 005a 0497     		str	r7, [sp, #16]
 215 005c 0596     		str	r6, [sp, #20]
 216 005e 0695     		str	r5, [sp, #24]
 217 0060 0F9D     		ldr	r5, [sp, #60]
 218 0062 0795     		str	r5, [sp, #28]
 219 0064 109D     		ldr	r5, [sp, #64]
 220 0066 0895     		str	r5, [sp, #32]
 221 0068 0994     		str	r4, [sp, #36]
 222 006a 119D     		ldr	r5, [sp, #68]
 223 006c 0A95     		str	r5, [sp, #40]
 224 006e 0B90     		str	r0, [sp, #44]
 225 0070 0120     		movs	r0, #1
 226 0072 0C99     		ldr	r1, [sp, #48]
 227 0074 0D9A     		ldr	r2, [sp, #52]
 228 0076 0E9B     		ldr	r3, [sp, #56]
 229 0078 FFF7FEFF 		bl	Logger_LogData
 230              	.LVL17:
  85:.\ControllerClass.c ****         );
  86:.\ControllerClass.c ****         
  87:.\ControllerClass.c ****         BMSdata->NewData = 0x00;
 231              		.loc 1 87 0
 232 007c 034B     		ldr	r3, .L11
 233 007e 1B68     		ldr	r3, [r3]
 234 0080 0022     		movs	r2, #0
 235 0082 DA75     		strb	r2, [r3, #23]
 236              	.L8:
  88:.\ControllerClass.c ****     }
  89:.\ControllerClass.c **** }
 237              		.loc 1 89 0
 238 0084 13B0     		add	sp, sp, #76
 239              		.cfi_def_cfa_offset 36
 240              		@ sp needed
 241 0086 BDE8F08F 		pop	{r4, r5, r6, r7, r8, r9, r10, fp, pc}
 242              	.L12:
 243 008a 00BF     		.align	2
 244              	.L11:
 245 008c 00000000 		.word	BMSdata
 246              		.cfi_endproc
 247              	.LFE64:
 248              		.size	run, .-run
 249              		.comm	BMSdata,4,4
 250              		.section	.rodata
 251              		.align	2
 252              		.set	.LANCHOR0,. + 0
ARM GAS  C:\Users\Thomas\AppData\Local\Temp\ccXxkjXW.s 			page 7


 253              	.LC0:
 254 0000 20000000 		.word	32
 255 0004 04000000 		.word	4
 256              		.text
 257              	.Letext0:
 258              		.file 2 "c:\\program files (x86)\\cypress\\psoc creator\\3.3\\psoc creator\\import\\gnu\\arm\\4.9.
 259              		.file 3 "c:\\program files (x86)\\cypress\\psoc creator\\3.3\\psoc creator\\import\\gnu\\arm\\4.9.
 260              		.file 4 "Generated_Source\\PSoC5/cytypes.h"
 261              		.file 5 "c:\\program files (x86)\\cypress\\psoc creator\\3.3\\psoc creator\\import\\gnu\\arm\\4.9.
 262              		.file 6 ".\\PID.h"
 263              		.file 7 ".\\CAN.h"
 264              		.file 8 "Generated_Source\\PSoC5/core_cm3.h"
 265              		.file 9 ".\\EEPROM.h"
 266              		.file 10 ".\\effectSensor.h"
 267              		.file 11 ".\\RPMSensor.h"
 268              		.file 12 ".\\Pedal.h"
 269              		.file 13 ".\\MotorController.h"
 270              		.file 14 ".\\Logger.h"
 271              		.file 15 "Generated_Source\\PSoC5/Clock_3.h"