ARM GAS  C:\Users\Thomas\AppData\Local\Temp\ccUw3CBt.s 			page 1


   1              		.syntax unified
   2              		.cpu cortex-m3
   3              		.fpu softvfp
   4              		.eabi_attribute 20, 1
   5              		.eabi_attribute 21, 1
   6              		.eabi_attribute 23, 3
   7              		.eabi_attribute 24, 1
   8              		.eabi_attribute 25, 1
   9              		.eabi_attribute 26, 1
  10              		.eabi_attribute 30, 1
  11              		.eabi_attribute 34, 1
  12              		.eabi_attribute 18, 4
  13              		.thumb
  14              		.file	"cyfitter_cfg.c"
  15              		.text
  16              	.Ltext0:
  17              		.cfi_sections	.debug_frame
  18              		.section	.text.CyClockStartupError,"ax",%progbits
  19              		.align	2
  20              		.thumb
  21              		.thumb_func
  22              		.type	CyClockStartupError, %function
  23              	CyClockStartupError:
  24              	.LFB3:
  25              		.file 1 ".\\Generated_Source\\PSoC5\\cyfitter_cfg.c"
   1:.\Generated_Source\PSoC5/cyfitter_cfg.c **** /*******************************************************************************
   2:.\Generated_Source\PSoC5/cyfitter_cfg.c **** * File Name: cyfitter_cfg.c
   3:.\Generated_Source\PSoC5/cyfitter_cfg.c **** * 
   4:.\Generated_Source\PSoC5/cyfitter_cfg.c **** * PSoC Creator  3.3 SP1
   5:.\Generated_Source\PSoC5/cyfitter_cfg.c **** *
   6:.\Generated_Source\PSoC5/cyfitter_cfg.c **** * Description:
   7:.\Generated_Source\PSoC5/cyfitter_cfg.c **** * This file contains device initialization code.
   8:.\Generated_Source\PSoC5/cyfitter_cfg.c **** * Except for the user defined sections in CyClockStartupError(), this file should not be modified.
   9:.\Generated_Source\PSoC5/cyfitter_cfg.c **** * This file is automatically generated by PSoC Creator.
  10:.\Generated_Source\PSoC5/cyfitter_cfg.c **** *
  11:.\Generated_Source\PSoC5/cyfitter_cfg.c **** ********************************************************************************
  12:.\Generated_Source\PSoC5/cyfitter_cfg.c **** * Copyright (c) 2007-2015 Cypress Semiconductor.  All rights reserved.
  13:.\Generated_Source\PSoC5/cyfitter_cfg.c **** * You may use this file only in accordance with the license, terms, conditions, 
  14:.\Generated_Source\PSoC5/cyfitter_cfg.c **** * disclaimers, and limitations in the end user license agreement accompanying 
  15:.\Generated_Source\PSoC5/cyfitter_cfg.c **** * the software package with which this file was provided.
  16:.\Generated_Source\PSoC5/cyfitter_cfg.c **** ********************************************************************************/
  17:.\Generated_Source\PSoC5/cyfitter_cfg.c **** 
  18:.\Generated_Source\PSoC5/cyfitter_cfg.c **** #include <string.h>
  19:.\Generated_Source\PSoC5/cyfitter_cfg.c **** #include "cytypes.h"
  20:.\Generated_Source\PSoC5/cyfitter_cfg.c **** #include "cydevice_trm.h"
  21:.\Generated_Source\PSoC5/cyfitter_cfg.c **** #include "cyfitter.h"
  22:.\Generated_Source\PSoC5/cyfitter_cfg.c **** #include "CyLib.h"
  23:.\Generated_Source\PSoC5/cyfitter_cfg.c **** #include "cyfitter_cfg.h"
  24:.\Generated_Source\PSoC5/cyfitter_cfg.c **** 
  25:.\Generated_Source\PSoC5/cyfitter_cfg.c **** #define CY_NEED_CYCLOCKSTARTUPERROR 1
  26:.\Generated_Source\PSoC5/cyfitter_cfg.c **** 
  27:.\Generated_Source\PSoC5/cyfitter_cfg.c **** 
  28:.\Generated_Source\PSoC5/cyfitter_cfg.c **** #if defined(__GNUC__) || defined(__ARMCC_VERSION)
  29:.\Generated_Source\PSoC5/cyfitter_cfg.c ****     #define CYPACKED 
  30:.\Generated_Source\PSoC5/cyfitter_cfg.c ****     #define CYPACKED_ATTR __attribute__ ((packed))
  31:.\Generated_Source\PSoC5/cyfitter_cfg.c ****     #define CYALIGNED __attribute__ ((aligned))
  32:.\Generated_Source\PSoC5/cyfitter_cfg.c ****     #define CY_CFG_UNUSED __attribute__ ((unused))
ARM GAS  C:\Users\Thomas\AppData\Local\Temp\ccUw3CBt.s 			page 2


  33:.\Generated_Source\PSoC5/cyfitter_cfg.c ****     #ifndef CY_CFG_SECTION
  34:.\Generated_Source\PSoC5/cyfitter_cfg.c ****         #define CY_CFG_SECTION __attribute__ ((section(".psocinit")))
  35:.\Generated_Source\PSoC5/cyfitter_cfg.c ****     #endif
  36:.\Generated_Source\PSoC5/cyfitter_cfg.c ****     
  37:.\Generated_Source\PSoC5/cyfitter_cfg.c ****     #if defined(__ARMCC_VERSION)
  38:.\Generated_Source\PSoC5/cyfitter_cfg.c ****         #define CY_CFG_MEMORY_BARRIER() __memory_changed()
  39:.\Generated_Source\PSoC5/cyfitter_cfg.c ****     #else
  40:.\Generated_Source\PSoC5/cyfitter_cfg.c ****         #define CY_CFG_MEMORY_BARRIER() __sync_synchronize()
  41:.\Generated_Source\PSoC5/cyfitter_cfg.c ****     #endif
  42:.\Generated_Source\PSoC5/cyfitter_cfg.c ****     
  43:.\Generated_Source\PSoC5/cyfitter_cfg.c **** #elif defined(__ICCARM__)
  44:.\Generated_Source\PSoC5/cyfitter_cfg.c ****     #include <intrinsics.h>
  45:.\Generated_Source\PSoC5/cyfitter_cfg.c **** 
  46:.\Generated_Source\PSoC5/cyfitter_cfg.c ****     #define CYPACKED __packed
  47:.\Generated_Source\PSoC5/cyfitter_cfg.c ****     #define CYPACKED_ATTR 
  48:.\Generated_Source\PSoC5/cyfitter_cfg.c ****     #define CYALIGNED _Pragma("data_alignment=4")
  49:.\Generated_Source\PSoC5/cyfitter_cfg.c ****     #define CY_CFG_UNUSED _Pragma("diag_suppress=Pe177")
  50:.\Generated_Source\PSoC5/cyfitter_cfg.c ****     #define CY_CFG_SECTION _Pragma("location=\".psocinit\"")
  51:.\Generated_Source\PSoC5/cyfitter_cfg.c ****     
  52:.\Generated_Source\PSoC5/cyfitter_cfg.c ****     #define CY_CFG_MEMORY_BARRIER() __DMB()
  53:.\Generated_Source\PSoC5/cyfitter_cfg.c ****     
  54:.\Generated_Source\PSoC5/cyfitter_cfg.c **** #else
  55:.\Generated_Source\PSoC5/cyfitter_cfg.c ****     #error Unsupported toolchain
  56:.\Generated_Source\PSoC5/cyfitter_cfg.c **** #endif
  57:.\Generated_Source\PSoC5/cyfitter_cfg.c **** 
  58:.\Generated_Source\PSoC5/cyfitter_cfg.c **** 
  59:.\Generated_Source\PSoC5/cyfitter_cfg.c **** CY_CFG_UNUSED
  60:.\Generated_Source\PSoC5/cyfitter_cfg.c **** static void CYMEMZERO(void *s, size_t n);
  61:.\Generated_Source\PSoC5/cyfitter_cfg.c **** CY_CFG_UNUSED
  62:.\Generated_Source\PSoC5/cyfitter_cfg.c **** static void CYMEMZERO(void *s, size_t n)
  63:.\Generated_Source\PSoC5/cyfitter_cfg.c **** {
  64:.\Generated_Source\PSoC5/cyfitter_cfg.c **** 	(void)memset(s, 0, n);
  65:.\Generated_Source\PSoC5/cyfitter_cfg.c **** }
  66:.\Generated_Source\PSoC5/cyfitter_cfg.c **** CY_CFG_UNUSED
  67:.\Generated_Source\PSoC5/cyfitter_cfg.c **** static void CYCONFIGCPY(void *dest, const void *src, size_t n);
  68:.\Generated_Source\PSoC5/cyfitter_cfg.c **** CY_CFG_UNUSED
  69:.\Generated_Source\PSoC5/cyfitter_cfg.c **** static void CYCONFIGCPY(void *dest, const void *src, size_t n)
  70:.\Generated_Source\PSoC5/cyfitter_cfg.c **** {
  71:.\Generated_Source\PSoC5/cyfitter_cfg.c **** 	(void)memcpy(dest, src, n);
  72:.\Generated_Source\PSoC5/cyfitter_cfg.c **** }
  73:.\Generated_Source\PSoC5/cyfitter_cfg.c **** CY_CFG_UNUSED
  74:.\Generated_Source\PSoC5/cyfitter_cfg.c **** static void CYCONFIGCPYCODE(void *dest, const void *src, size_t n);
  75:.\Generated_Source\PSoC5/cyfitter_cfg.c **** CY_CFG_UNUSED
  76:.\Generated_Source\PSoC5/cyfitter_cfg.c **** static void CYCONFIGCPYCODE(void *dest, const void *src, size_t n)
  77:.\Generated_Source\PSoC5/cyfitter_cfg.c **** {
  78:.\Generated_Source\PSoC5/cyfitter_cfg.c **** 	(void)memcpy(dest, src, n);
  79:.\Generated_Source\PSoC5/cyfitter_cfg.c **** }
  80:.\Generated_Source\PSoC5/cyfitter_cfg.c **** 
  81:.\Generated_Source\PSoC5/cyfitter_cfg.c **** 
  82:.\Generated_Source\PSoC5/cyfitter_cfg.c **** 
  83:.\Generated_Source\PSoC5/cyfitter_cfg.c **** /* Clock startup error codes                                                   */
  84:.\Generated_Source\PSoC5/cyfitter_cfg.c **** #define CYCLOCKSTART_NO_ERROR    0u
  85:.\Generated_Source\PSoC5/cyfitter_cfg.c **** #define CYCLOCKSTART_XTAL_ERROR  1u
  86:.\Generated_Source\PSoC5/cyfitter_cfg.c **** #define CYCLOCKSTART_32KHZ_ERROR 2u
  87:.\Generated_Source\PSoC5/cyfitter_cfg.c **** #define CYCLOCKSTART_PLL_ERROR   3u
  88:.\Generated_Source\PSoC5/cyfitter_cfg.c **** 
  89:.\Generated_Source\PSoC5/cyfitter_cfg.c **** #ifdef CY_NEED_CYCLOCKSTARTUPERROR
ARM GAS  C:\Users\Thomas\AppData\Local\Temp\ccUw3CBt.s 			page 3


  90:.\Generated_Source\PSoC5/cyfitter_cfg.c **** /*******************************************************************************
  91:.\Generated_Source\PSoC5/cyfitter_cfg.c **** * Function Name: CyClockStartupError
  92:.\Generated_Source\PSoC5/cyfitter_cfg.c **** ********************************************************************************
  93:.\Generated_Source\PSoC5/cyfitter_cfg.c **** * Summary:
  94:.\Generated_Source\PSoC5/cyfitter_cfg.c **** *  If an error is encountered during clock configuration (crystal startup error,
  95:.\Generated_Source\PSoC5/cyfitter_cfg.c **** *  PLL lock error, etc.), the system will end up here.  Unless reimplemented by
  96:.\Generated_Source\PSoC5/cyfitter_cfg.c **** *  the customer, this function will stop in an infinite loop.
  97:.\Generated_Source\PSoC5/cyfitter_cfg.c **** *
  98:.\Generated_Source\PSoC5/cyfitter_cfg.c **** * Parameters:
  99:.\Generated_Source\PSoC5/cyfitter_cfg.c **** *   void
 100:.\Generated_Source\PSoC5/cyfitter_cfg.c **** *
 101:.\Generated_Source\PSoC5/cyfitter_cfg.c **** * Return:
 102:.\Generated_Source\PSoC5/cyfitter_cfg.c **** *   void
 103:.\Generated_Source\PSoC5/cyfitter_cfg.c **** *
 104:.\Generated_Source\PSoC5/cyfitter_cfg.c **** *******************************************************************************/
 105:.\Generated_Source\PSoC5/cyfitter_cfg.c **** CY_CFG_UNUSED
 106:.\Generated_Source\PSoC5/cyfitter_cfg.c **** static void CyClockStartupError(uint8 errorCode);
 107:.\Generated_Source\PSoC5/cyfitter_cfg.c **** CY_CFG_UNUSED
 108:.\Generated_Source\PSoC5/cyfitter_cfg.c **** static void CyClockStartupError(uint8 errorCode)
 109:.\Generated_Source\PSoC5/cyfitter_cfg.c **** {
  26              		.loc 1 109 0
  27              		.cfi_startproc
  28              		@ Volatile: function does not return.
  29              		@ args = 0, pretend = 0, frame = 0
  30              		@ frame_needed = 0, uses_anonymous_args = 0
  31              		@ link register save eliminated.
  32              	.LVL0:
  33              	.L2:
 110:.\Generated_Source\PSoC5/cyfitter_cfg.c ****     /* To remove the compiler warning if errorCode not used.                */
 111:.\Generated_Source\PSoC5/cyfitter_cfg.c ****     errorCode = errorCode;
 112:.\Generated_Source\PSoC5/cyfitter_cfg.c **** 
 113:.\Generated_Source\PSoC5/cyfitter_cfg.c ****     /* `#START CyClockStartupError` */
 114:.\Generated_Source\PSoC5/cyfitter_cfg.c **** 
 115:.\Generated_Source\PSoC5/cyfitter_cfg.c ****     /* If we have a clock startup error (bad MHz crystal, PLL lock, etc.),  */
 116:.\Generated_Source\PSoC5/cyfitter_cfg.c ****     /* we will end up here to allow the customer to implement something to  */
 117:.\Generated_Source\PSoC5/cyfitter_cfg.c ****     /* deal with the clock condition.                                       */
 118:.\Generated_Source\PSoC5/cyfitter_cfg.c **** 
 119:.\Generated_Source\PSoC5/cyfitter_cfg.c ****     /* `#END` */
 120:.\Generated_Source\PSoC5/cyfitter_cfg.c **** 
 121:.\Generated_Source\PSoC5/cyfitter_cfg.c ****     /* If nothing else, stop here since the clocks have not started         */
 122:.\Generated_Source\PSoC5/cyfitter_cfg.c ****     /* correctly.                                                           */
 123:.\Generated_Source\PSoC5/cyfitter_cfg.c ****     while(1) {}
  34              		.loc 1 123 0 discriminator 1
  35 0000 FEE7     		b	.L2
  36              		.cfi_endproc
  37              	.LFE3:
  38              		.size	CyClockStartupError, .-CyClockStartupError
  39 0002 00BF     		.section	.text.cfg_write_bytes32,"ax",%progbits
  40              		.align	2
  41              		.thumb
  42              		.thumb_func
  43              		.type	cfg_write_bytes32, %function
  44              	cfg_write_bytes32:
  45              	.LFB4:
 124:.\Generated_Source\PSoC5/cyfitter_cfg.c **** }
 125:.\Generated_Source\PSoC5/cyfitter_cfg.c **** #endif
 126:.\Generated_Source\PSoC5/cyfitter_cfg.c **** 
ARM GAS  C:\Users\Thomas\AppData\Local\Temp\ccUw3CBt.s 			page 4


 127:.\Generated_Source\PSoC5/cyfitter_cfg.c **** #define CY_CFG_BASE_ADDR_COUNT 33u
 128:.\Generated_Source\PSoC5/cyfitter_cfg.c **** CYPACKED typedef struct
 129:.\Generated_Source\PSoC5/cyfitter_cfg.c **** {
 130:.\Generated_Source\PSoC5/cyfitter_cfg.c **** 	uint8 offset;
 131:.\Generated_Source\PSoC5/cyfitter_cfg.c **** 	uint8 value;
 132:.\Generated_Source\PSoC5/cyfitter_cfg.c **** } CYPACKED_ATTR cy_cfg_addrvalue_t;
 133:.\Generated_Source\PSoC5/cyfitter_cfg.c **** 
 134:.\Generated_Source\PSoC5/cyfitter_cfg.c **** #define cy_cfg_addr_table ((const uint32 CYFAR *)0x48000000u)
 135:.\Generated_Source\PSoC5/cyfitter_cfg.c **** #define cy_cfg_data_table ((const cy_cfg_addrvalue_t CYFAR *)0x48000084u)
 136:.\Generated_Source\PSoC5/cyfitter_cfg.c **** 
 137:.\Generated_Source\PSoC5/cyfitter_cfg.c **** /* IOPORT_7 Address: CYDEV_PRTDSI_PRT12_BASE Size (bytes): 6 */
 138:.\Generated_Source\PSoC5/cyfitter_cfg.c **** #define BS_IOPORT_7_VAL ((const uint8 CYFAR *)0x4800078Cu)
 139:.\Generated_Source\PSoC5/cyfitter_cfg.c **** 
 140:.\Generated_Source\PSoC5/cyfitter_cfg.c **** /* IOPINS0_0 Address: CYREG_PRT0_DM0 Size (bytes): 8 */
 141:.\Generated_Source\PSoC5/cyfitter_cfg.c **** #define BS_IOPINS0_0_VAL ((const uint8 CYFAR *)0x48000794u)
 142:.\Generated_Source\PSoC5/cyfitter_cfg.c **** 
 143:.\Generated_Source\PSoC5/cyfitter_cfg.c **** /* IOPINS0_7 Address: CYREG_PRT12_DM0 Size (bytes): 8 */
 144:.\Generated_Source\PSoC5/cyfitter_cfg.c **** #define BS_IOPINS0_7_VAL ((const uint8 CYFAR *)0x4800079Cu)
 145:.\Generated_Source\PSoC5/cyfitter_cfg.c **** 
 146:.\Generated_Source\PSoC5/cyfitter_cfg.c **** /* IOPINS0_8 Address: CYREG_PRT15_DR Size (bytes): 10 */
 147:.\Generated_Source\PSoC5/cyfitter_cfg.c **** #define BS_IOPINS0_8_VAL ((const uint8 CYFAR *)0x480007A4u)
 148:.\Generated_Source\PSoC5/cyfitter_cfg.c **** 
 149:.\Generated_Source\PSoC5/cyfitter_cfg.c **** /* IOPINS0_1 Address: CYREG_PRT1_DR Size (bytes): 10 */
 150:.\Generated_Source\PSoC5/cyfitter_cfg.c **** #define BS_IOPINS0_1_VAL ((const uint8 CYFAR *)0x480007B0u)
 151:.\Generated_Source\PSoC5/cyfitter_cfg.c **** 
 152:.\Generated_Source\PSoC5/cyfitter_cfg.c **** /* IOPINS0_2 Address: CYREG_PRT2_DM0 Size (bytes): 8 */
 153:.\Generated_Source\PSoC5/cyfitter_cfg.c **** #define BS_IOPINS0_2_VAL ((const uint8 CYFAR *)0x480007BCu)
 154:.\Generated_Source\PSoC5/cyfitter_cfg.c **** 
 155:.\Generated_Source\PSoC5/cyfitter_cfg.c **** /* IOPINS0_3 Address: CYREG_PRT3_DM0 Size (bytes): 8 */
 156:.\Generated_Source\PSoC5/cyfitter_cfg.c **** #define BS_IOPINS0_3_VAL ((const uint8 CYFAR *)0x480007C4u)
 157:.\Generated_Source\PSoC5/cyfitter_cfg.c **** 
 158:.\Generated_Source\PSoC5/cyfitter_cfg.c **** /* PHUB_CFGMEM1 Address: CYREG_PHUB_CFGMEM1_CFG0 Size (bytes): 4 */
 159:.\Generated_Source\PSoC5/cyfitter_cfg.c **** #define BS_PHUB_CFGMEM1_VAL ((const uint8 CYFAR *)0x480007CCu)
 160:.\Generated_Source\PSoC5/cyfitter_cfg.c **** 
 161:.\Generated_Source\PSoC5/cyfitter_cfg.c **** 
 162:.\Generated_Source\PSoC5/cyfitter_cfg.c **** /*******************************************************************************
 163:.\Generated_Source\PSoC5/cyfitter_cfg.c **** * Function Name: cfg_write_bytes32
 164:.\Generated_Source\PSoC5/cyfitter_cfg.c **** ********************************************************************************
 165:.\Generated_Source\PSoC5/cyfitter_cfg.c **** * Summary:
 166:.\Generated_Source\PSoC5/cyfitter_cfg.c **** *  This function is used for setting up the chip configuration areas that
 167:.\Generated_Source\PSoC5/cyfitter_cfg.c **** *  contain relatively sparse data.
 168:.\Generated_Source\PSoC5/cyfitter_cfg.c **** *
 169:.\Generated_Source\PSoC5/cyfitter_cfg.c **** * Parameters:
 170:.\Generated_Source\PSoC5/cyfitter_cfg.c **** *   void
 171:.\Generated_Source\PSoC5/cyfitter_cfg.c **** *
 172:.\Generated_Source\PSoC5/cyfitter_cfg.c **** * Return:
 173:.\Generated_Source\PSoC5/cyfitter_cfg.c **** *   void
 174:.\Generated_Source\PSoC5/cyfitter_cfg.c **** *
 175:.\Generated_Source\PSoC5/cyfitter_cfg.c **** *******************************************************************************/
 176:.\Generated_Source\PSoC5/cyfitter_cfg.c **** static void cfg_write_bytes32(const uint32 addr_table[], const cy_cfg_addrvalue_t data_table[]);
 177:.\Generated_Source\PSoC5/cyfitter_cfg.c **** static void cfg_write_bytes32(const uint32 addr_table[], const cy_cfg_addrvalue_t data_table[])
 178:.\Generated_Source\PSoC5/cyfitter_cfg.c **** {
  46              		.loc 1 178 0
  47              		.cfi_startproc
  48              		@ args = 0, pretend = 0, frame = 0
  49              		@ frame_needed = 0, uses_anonymous_args = 0
  50              		@ link register save eliminated.
ARM GAS  C:\Users\Thomas\AppData\Local\Temp\ccUw3CBt.s 			page 5


  51              	.LVL1:
  52 0000 F0B4     		push	{r4, r5, r6, r7}
  53              		.cfi_def_cfa_offset 16
  54              		.cfi_offset 4, -16
  55              		.cfi_offset 5, -12
  56              		.cfi_offset 6, -8
  57              		.cfi_offset 7, -4
  58              	.LVL2:
 179:.\Generated_Source\PSoC5/cyfitter_cfg.c **** 	/* For 32-bit little-endian architectures */
 180:.\Generated_Source\PSoC5/cyfitter_cfg.c **** 	uint32 i, j = 0u;
  59              		.loc 1 180 0
  60 0002 0022     		movs	r2, #0
 181:.\Generated_Source\PSoC5/cyfitter_cfg.c **** 	for (i = 0u; i < CY_CFG_BASE_ADDR_COUNT; i++)
  61              		.loc 1 181 0
  62 0004 1746     		mov	r7, r2
  63 0006 11E0     		b	.L4
  64              	.LVL3:
  65              	.L7:
  66              	.LBB2:
 182:.\Generated_Source\PSoC5/cyfitter_cfg.c **** 	{
 183:.\Generated_Source\PSoC5/cyfitter_cfg.c **** 		uint32 baseAddr = addr_table[i];
  67              		.loc 1 183 0
  68 0008 50F82760 		ldr	r6, [r0, r7, lsl #2]
  69              	.LVL4:
 184:.\Generated_Source\PSoC5/cyfitter_cfg.c **** 		uint8 count = (uint8)baseAddr;
  70              		.loc 1 184 0
  71 000c F3B2     		uxtb	r3, r6
  72              	.LVL5:
 185:.\Generated_Source\PSoC5/cyfitter_cfg.c **** 		baseAddr &= 0xFFFFFF00u;
  73              		.loc 1 185 0
  74 000e 26F0FF06 		bic	r6, r6, #255
  75              	.LVL6:
 186:.\Generated_Source\PSoC5/cyfitter_cfg.c **** 		while (count != 0u)
  76              		.loc 1 186 0
  77 0012 08E0     		b	.L5
  78              	.L6:
 187:.\Generated_Source\PSoC5/cyfitter_cfg.c **** 		{
 188:.\Generated_Source\PSoC5/cyfitter_cfg.c **** 			CY_SET_XTND_REG8((void CYFAR *)(baseAddr + data_table[j].offset), data_table[j].value);
  79              		.loc 1 188 0
  80 0014 01EB4205 		add	r5, r1, r2, lsl #1
  81 0018 11F81240 		ldrb	r4, [r1, r2, lsl #1]	@ zero_extendqisi2
  82 001c 6D78     		ldrb	r5, [r5, #1]	@ zero_extendqisi2
  83 001e A555     		strb	r5, [r4, r6]
 189:.\Generated_Source\PSoC5/cyfitter_cfg.c **** 			j++;
  84              		.loc 1 189 0
  85 0020 0132     		adds	r2, r2, #1
  86              	.LVL7:
 190:.\Generated_Source\PSoC5/cyfitter_cfg.c **** 			count--;
  87              		.loc 1 190 0
  88 0022 013B     		subs	r3, r3, #1
  89              	.LVL8:
  90 0024 DBB2     		uxtb	r3, r3
  91              	.LVL9:
  92              	.L5:
 186:.\Generated_Source\PSoC5/cyfitter_cfg.c **** 		{
  93              		.loc 1 186 0
  94 0026 002B     		cmp	r3, #0
ARM GAS  C:\Users\Thomas\AppData\Local\Temp\ccUw3CBt.s 			page 6


  95 0028 F4D1     		bne	.L6
  96              	.LBE2:
 181:.\Generated_Source\PSoC5/cyfitter_cfg.c **** 	{
  97              		.loc 1 181 0 discriminator 2
  98 002a 0137     		adds	r7, r7, #1
  99              	.LVL10:
 100              	.L4:
 181:.\Generated_Source\PSoC5/cyfitter_cfg.c **** 	{
 101              		.loc 1 181 0 is_stmt 0 discriminator 1
 102 002c 202F     		cmp	r7, #32
 103 002e EBD9     		bls	.L7
 191:.\Generated_Source\PSoC5/cyfitter_cfg.c **** 		}
 192:.\Generated_Source\PSoC5/cyfitter_cfg.c **** 	}
 193:.\Generated_Source\PSoC5/cyfitter_cfg.c **** }
 104              		.loc 1 193 0 is_stmt 1
 105 0030 F0BC     		pop	{r4, r5, r6, r7}
 106              		.cfi_restore 7
 107              		.cfi_restore 6
 108              		.cfi_restore 5
 109              		.cfi_restore 4
 110              		.cfi_def_cfa_offset 0
 111              	.LVL11:
 112 0032 7047     		bx	lr
 113              		.cfi_endproc
 114              	.LFE4:
 115              		.size	cfg_write_bytes32, .-cfg_write_bytes32
 116              		.section	.text.AnalogSetDefault,"ax",%progbits
 117              		.align	2
 118              		.thumb
 119              		.thumb_func
 120              		.type	AnalogSetDefault, %function
 121              	AnalogSetDefault:
 122              	.LFB6:
 194:.\Generated_Source\PSoC5/cyfitter_cfg.c **** 
 195:.\Generated_Source\PSoC5/cyfitter_cfg.c **** /*******************************************************************************
 196:.\Generated_Source\PSoC5/cyfitter_cfg.c **** * Function Name: ClockSetup
 197:.\Generated_Source\PSoC5/cyfitter_cfg.c **** ********************************************************************************
 198:.\Generated_Source\PSoC5/cyfitter_cfg.c **** *
 199:.\Generated_Source\PSoC5/cyfitter_cfg.c **** * Summary:
 200:.\Generated_Source\PSoC5/cyfitter_cfg.c **** *  Performs the initialization of all of the clocks in the device based on the
 201:.\Generated_Source\PSoC5/cyfitter_cfg.c **** *  settings in the Clock tab of the DWR.  This includes enabling the requested
 202:.\Generated_Source\PSoC5/cyfitter_cfg.c **** *  clocks and setting the necessary dividers to produce the desired frequency. 
 203:.\Generated_Source\PSoC5/cyfitter_cfg.c **** *
 204:.\Generated_Source\PSoC5/cyfitter_cfg.c **** * Parameters:
 205:.\Generated_Source\PSoC5/cyfitter_cfg.c **** *  void
 206:.\Generated_Source\PSoC5/cyfitter_cfg.c **** *
 207:.\Generated_Source\PSoC5/cyfitter_cfg.c **** * Return:
 208:.\Generated_Source\PSoC5/cyfitter_cfg.c **** *  void
 209:.\Generated_Source\PSoC5/cyfitter_cfg.c **** *
 210:.\Generated_Source\PSoC5/cyfitter_cfg.c **** *******************************************************************************/
 211:.\Generated_Source\PSoC5/cyfitter_cfg.c **** static void ClockSetup(void);
 212:.\Generated_Source\PSoC5/cyfitter_cfg.c **** static void ClockSetup(void)
 213:.\Generated_Source\PSoC5/cyfitter_cfg.c **** {
 214:.\Generated_Source\PSoC5/cyfitter_cfg.c **** 	uint32 timeout;
 215:.\Generated_Source\PSoC5/cyfitter_cfg.c **** 	uint8 pllLock;
 216:.\Generated_Source\PSoC5/cyfitter_cfg.c **** 
 217:.\Generated_Source\PSoC5/cyfitter_cfg.c **** 
ARM GAS  C:\Users\Thomas\AppData\Local\Temp\ccUw3CBt.s 			page 7


 218:.\Generated_Source\PSoC5/cyfitter_cfg.c **** 	/* Configure Digital Clocks based on settings from Clock DWR */
 219:.\Generated_Source\PSoC5/cyfitter_cfg.c **** 	CY_SET_XTND_REG16((void CYFAR *)(CYREG_CLKDIST_DCFG0_CFG0), 0x0000u);
 220:.\Generated_Source\PSoC5/cyfitter_cfg.c **** 	CY_SET_XTND_REG8((void CYFAR *)(CYREG_CLKDIST_DCFG0_CFG0 + 0x2u), 0x58u);
 221:.\Generated_Source\PSoC5/cyfitter_cfg.c **** 	CY_SET_XTND_REG16((void CYFAR *)(CYREG_CLKDIST_DCFG1_CFG0), 0x0003u);
 222:.\Generated_Source\PSoC5/cyfitter_cfg.c **** 	CY_SET_XTND_REG8((void CYFAR *)(CYREG_CLKDIST_DCFG1_CFG0 + 0x2u), 0x18u);
 223:.\Generated_Source\PSoC5/cyfitter_cfg.c **** 	CY_SET_XTND_REG16((void CYFAR *)(CYREG_CLKDIST_DCFG2_CFG0), 0x0014u);
 224:.\Generated_Source\PSoC5/cyfitter_cfg.c **** 	CY_SET_XTND_REG8((void CYFAR *)(CYREG_CLKDIST_DCFG2_CFG0 + 0x2u), 0x18u);
 225:.\Generated_Source\PSoC5/cyfitter_cfg.c **** 	CY_SET_XTND_REG16((void CYFAR *)(CYREG_CLKDIST_DCFG3_CFG0), 0x0014u);
 226:.\Generated_Source\PSoC5/cyfitter_cfg.c **** 	CY_SET_XTND_REG8((void CYFAR *)(CYREG_CLKDIST_DCFG3_CFG0 + 0x2u), 0x18u);
 227:.\Generated_Source\PSoC5/cyfitter_cfg.c **** 	CY_SET_XTND_REG16((void CYFAR *)(CYREG_CLKDIST_DCFG4_CFG0), 0x22B8u);
 228:.\Generated_Source\PSoC5/cyfitter_cfg.c **** 	CY_SET_XTND_REG8((void CYFAR *)(CYREG_CLKDIST_DCFG4_CFG0 + 0x2u), 0x18u);
 229:.\Generated_Source\PSoC5/cyfitter_cfg.c **** 	CY_SET_XTND_REG16((void CYFAR *)(CYREG_CLKDIST_DCFG5_CFG0), 0x5DBFu);
 230:.\Generated_Source\PSoC5/cyfitter_cfg.c **** 	CY_SET_XTND_REG8((void CYFAR *)(CYREG_CLKDIST_DCFG5_CFG0 + 0x2u), 0x18u);
 231:.\Generated_Source\PSoC5/cyfitter_cfg.c **** 	CY_SET_XTND_REG16((void CYFAR *)(CYREG_CLKDIST_DCFG6_CFG0), 0x5DBFu);
 232:.\Generated_Source\PSoC5/cyfitter_cfg.c **** 	CY_SET_XTND_REG8((void CYFAR *)(CYREG_CLKDIST_DCFG6_CFG0 + 0x2u), 0x18u);
 233:.\Generated_Source\PSoC5/cyfitter_cfg.c **** 	CY_SET_XTND_REG16((void CYFAR *)(CYREG_CLKDIST_DCFG7_CFG0), 0x01F3u);
 234:.\Generated_Source\PSoC5/cyfitter_cfg.c **** 	CY_SET_XTND_REG8((void CYFAR *)(CYREG_CLKDIST_DCFG7_CFG0 + 0x2u), 0x1Bu);
 235:.\Generated_Source\PSoC5/cyfitter_cfg.c **** 
 236:.\Generated_Source\PSoC5/cyfitter_cfg.c **** 	/* Configure ILO based on settings from Clock DWR */
 237:.\Generated_Source\PSoC5/cyfitter_cfg.c **** 	CY_SET_XTND_REG8((void CYFAR *)(CYREG_SLOWCLK_ILO_CR0), 0x06u);
 238:.\Generated_Source\PSoC5/cyfitter_cfg.c **** 
 239:.\Generated_Source\PSoC5/cyfitter_cfg.c **** 	/* Configure IMO based on settings from Clock DWR */
 240:.\Generated_Source\PSoC5/cyfitter_cfg.c **** 	CY_SET_XTND_REG8((void CYFAR *)(CYREG_FASTCLK_IMO_CR), 0x52u);
 241:.\Generated_Source\PSoC5/cyfitter_cfg.c **** 	CY_SET_XTND_REG8((void CYFAR *)(CYREG_IMO_TR1), (CY_GET_XTND_REG8((void CYFAR *)CYREG_FLSHID_CUST_
 242:.\Generated_Source\PSoC5/cyfitter_cfg.c **** 
 243:.\Generated_Source\PSoC5/cyfitter_cfg.c **** 	/* Configure PLL based on settings from Clock DWR */
 244:.\Generated_Source\PSoC5/cyfitter_cfg.c **** 	CY_SET_XTND_REG16((void CYFAR *)(CYREG_FASTCLK_PLL_P), 0x0708u);
 245:.\Generated_Source\PSoC5/cyfitter_cfg.c **** 	CY_SET_XTND_REG16((void CYFAR *)(CYREG_FASTCLK_PLL_CFG0), 0x1251u);
 246:.\Generated_Source\PSoC5/cyfitter_cfg.c **** 	/* Wait up to 250us for the PLL to lock */
 247:.\Generated_Source\PSoC5/cyfitter_cfg.c **** 	pllLock = 0u;
 248:.\Generated_Source\PSoC5/cyfitter_cfg.c **** 	for (timeout = 250u / 10u; (timeout > 0u) && (pllLock != 0x03u); timeout--)
 249:.\Generated_Source\PSoC5/cyfitter_cfg.c **** 	{ 
 250:.\Generated_Source\PSoC5/cyfitter_cfg.c **** 		pllLock = 0x03u & ((uint8)((uint8)pllLock << 1) | ((CY_GET_XTND_REG8((void CYFAR *)CYREG_FASTCLK_
 251:.\Generated_Source\PSoC5/cyfitter_cfg.c **** 		CyDelayCycles(10u * 48u); /* Delay 10us based on 48MHz clock */
 252:.\Generated_Source\PSoC5/cyfitter_cfg.c **** 	}
 253:.\Generated_Source\PSoC5/cyfitter_cfg.c **** 	/* If we ran out of time the PLL didn't lock so go to the error function */
 254:.\Generated_Source\PSoC5/cyfitter_cfg.c **** 	if (timeout == 0u)
 255:.\Generated_Source\PSoC5/cyfitter_cfg.c **** 	{
 256:.\Generated_Source\PSoC5/cyfitter_cfg.c **** 		CyClockStartupError(CYCLOCKSTART_PLL_ERROR);
 257:.\Generated_Source\PSoC5/cyfitter_cfg.c **** 	}
 258:.\Generated_Source\PSoC5/cyfitter_cfg.c **** 
 259:.\Generated_Source\PSoC5/cyfitter_cfg.c **** 	/* Configure Bus/Master Clock based on settings from Clock DWR */
 260:.\Generated_Source\PSoC5/cyfitter_cfg.c **** 	CY_SET_XTND_REG16((void CYFAR *)(CYREG_CLKDIST_MSTR0), 0x0100u);
 261:.\Generated_Source\PSoC5/cyfitter_cfg.c **** 	CY_SET_XTND_REG8((void CYFAR *)(CYREG_CLKDIST_MSTR0), 0x07u);
 262:.\Generated_Source\PSoC5/cyfitter_cfg.c **** 	CY_SET_XTND_REG8((void CYFAR *)(CYREG_CLKDIST_BCFG0), 0x00u);
 263:.\Generated_Source\PSoC5/cyfitter_cfg.c **** 	CY_SET_XTND_REG8((void CYFAR *)(CYREG_CLKDIST_BCFG2), 0x48u);
 264:.\Generated_Source\PSoC5/cyfitter_cfg.c **** 	CY_SET_XTND_REG8((void CYFAR *)(CYREG_CLKDIST_MSTR0), 0x00u);
 265:.\Generated_Source\PSoC5/cyfitter_cfg.c **** 
 266:.\Generated_Source\PSoC5/cyfitter_cfg.c **** 	/* Configure USB Clock based on settings from Clock DWR */
 267:.\Generated_Source\PSoC5/cyfitter_cfg.c **** 	CY_SET_XTND_REG8((void CYFAR *)(CYREG_CLKDIST_UCFG), 0x00u);
 268:.\Generated_Source\PSoC5/cyfitter_cfg.c **** 	CY_SET_XTND_REG8((void CYFAR *)(CYREG_CLKDIST_LD), 0x02u);
 269:.\Generated_Source\PSoC5/cyfitter_cfg.c **** 
 270:.\Generated_Source\PSoC5/cyfitter_cfg.c **** 	CY_SET_XTND_REG8((void CYFAR *)(CYREG_PM_ACT_CFG2), ((CY_GET_XTND_REG8((void CYFAR *)CYREG_PM_ACT_
 271:.\Generated_Source\PSoC5/cyfitter_cfg.c **** }
 272:.\Generated_Source\PSoC5/cyfitter_cfg.c **** 
 273:.\Generated_Source\PSoC5/cyfitter_cfg.c **** 
 274:.\Generated_Source\PSoC5/cyfitter_cfg.c **** /* Analog API Functions */
ARM GAS  C:\Users\Thomas\AppData\Local\Temp\ccUw3CBt.s 			page 8


 275:.\Generated_Source\PSoC5/cyfitter_cfg.c **** 
 276:.\Generated_Source\PSoC5/cyfitter_cfg.c **** 
 277:.\Generated_Source\PSoC5/cyfitter_cfg.c **** /*******************************************************************************
 278:.\Generated_Source\PSoC5/cyfitter_cfg.c **** * Function Name: AnalogSetDefault
 279:.\Generated_Source\PSoC5/cyfitter_cfg.c **** ********************************************************************************
 280:.\Generated_Source\PSoC5/cyfitter_cfg.c **** *
 281:.\Generated_Source\PSoC5/cyfitter_cfg.c **** * Summary:
 282:.\Generated_Source\PSoC5/cyfitter_cfg.c **** *  Sets up the analog portions of the chip to default values based on chip
 283:.\Generated_Source\PSoC5/cyfitter_cfg.c **** *  configuration options from the project.
 284:.\Generated_Source\PSoC5/cyfitter_cfg.c **** *
 285:.\Generated_Source\PSoC5/cyfitter_cfg.c **** * Parameters:
 286:.\Generated_Source\PSoC5/cyfitter_cfg.c **** *  void
 287:.\Generated_Source\PSoC5/cyfitter_cfg.c **** *
 288:.\Generated_Source\PSoC5/cyfitter_cfg.c **** * Return:
 289:.\Generated_Source\PSoC5/cyfitter_cfg.c **** *  void
 290:.\Generated_Source\PSoC5/cyfitter_cfg.c **** *
 291:.\Generated_Source\PSoC5/cyfitter_cfg.c **** *******************************************************************************/
 292:.\Generated_Source\PSoC5/cyfitter_cfg.c **** static void AnalogSetDefault(void);
 293:.\Generated_Source\PSoC5/cyfitter_cfg.c **** static void AnalogSetDefault(void)
 294:.\Generated_Source\PSoC5/cyfitter_cfg.c **** {
 123              		.loc 1 294 0
 124              		.cfi_startproc
 125              		@ args = 0, pretend = 0, frame = 0
 126              		@ frame_needed = 0, uses_anonymous_args = 0
 127              		@ link register save eliminated.
 128 0000 F0B4     		push	{r4, r5, r6, r7}
 129              		.cfi_def_cfa_offset 16
 130              		.cfi_offset 4, -16
 131              		.cfi_offset 5, -12
 132              		.cfi_offset 6, -8
 133              		.cfi_offset 7, -4
 295:.\Generated_Source\PSoC5/cyfitter_cfg.c **** 	uint8 bg_xover_inl_trim = CY_GET_XTND_REG8((void CYFAR *)(CYREG_FLSHID_MFG_CFG_BG_XOVER_INL_TRIM +
 134              		.loc 1 295 0
 135 0002 224B     		ldr	r3, .L11
 136 0004 1B78     		ldrb	r3, [r3]	@ zero_extendqisi2
 137 0006 DBB2     		uxtb	r3, r3
 138              	.LVL12:
 296:.\Generated_Source\PSoC5/cyfitter_cfg.c **** 	uint8 cr4 = CY_GET_XTND_REG8((void CYFAR *)(CYREG_RESET_CR4));
 139              		.loc 1 296 0
 140 0008 2148     		ldr	r0, .L11+4
 141 000a 0278     		ldrb	r2, [r0]	@ zero_extendqisi2
 142 000c D2B2     		uxtb	r2, r2
 143              	.LVL13:
 297:.\Generated_Source\PSoC5/cyfitter_cfg.c **** 	uint8 cr5 = CY_GET_XTND_REG8((void CYFAR *)(CYREG_RESET_CR5));
 144              		.loc 1 297 0
 145 000e 214C     		ldr	r4, .L11+8
 146 0010 2178     		ldrb	r1, [r4]	@ zero_extendqisi2
 147 0012 C9B2     		uxtb	r1, r1
 148              	.LVL14:
 298:.\Generated_Source\PSoC5/cyfitter_cfg.c **** 	CY_SET_XTND_REG8((void CYFAR *)(CYREG_BG_DFT0), (bg_xover_inl_trim & 0x07u));
 149              		.loc 1 298 0
 150 0014 03F00706 		and	r6, r3, #7
 151 0018 1F4D     		ldr	r5, .L11+12
 152 001a 2E70     		strb	r6, [r5]
 299:.\Generated_Source\PSoC5/cyfitter_cfg.c **** 	CY_SET_XTND_REG8((void CYFAR *)(CYREG_BG_DFT1), ((bg_xover_inl_trim >> 4) & 0x0Fu));
 153              		.loc 1 299 0
 154 001c 1B09     		lsrs	r3, r3, #4
ARM GAS  C:\Users\Thomas\AppData\Local\Temp\ccUw3CBt.s 			page 9


 155              	.LVL15:
 156 001e 0135     		adds	r5, r5, #1
 157 0020 2B70     		strb	r3, [r5]
 300:.\Generated_Source\PSoC5/cyfitter_cfg.c **** 	/* Disable PRES while setting up SAR voltage reference */
 301:.\Generated_Source\PSoC5/cyfitter_cfg.c **** 	CY_SET_XTND_REG8((void CYFAR *)(CYREG_RESET_CR4), (cr4 | 0x03u));
 158              		.loc 1 301 0
 159 0022 42F00303 		orr	r3, r2, #3
 160 0026 0370     		strb	r3, [r0]
 302:.\Generated_Source\PSoC5/cyfitter_cfg.c **** 	CY_SET_XTND_REG8((void CYFAR *)(CYREG_RESET_CR5), (cr5 | 0x03u));
 161              		.loc 1 302 0
 162 0028 41F00303 		orr	r3, r1, #3
 163 002c 2370     		strb	r3, [r4]
 303:.\Generated_Source\PSoC5/cyfitter_cfg.c **** 	CY_SET_XTND_REG8((void CYFAR *)CYREG_PRT3_AG, 0x38u);
 164              		.loc 1 303 0
 165 002e 3825     		movs	r5, #56
 166 0030 1A4B     		ldr	r3, .L11+16
 167 0032 1D70     		strb	r5, [r3]
 304:.\Generated_Source\PSoC5/cyfitter_cfg.c **** 	CY_SET_XTND_REG8((void CYFAR *)CYREG_SAR0_CSR1, 0x40u);
 168              		.loc 1 304 0
 169 0034 4026     		movs	r6, #64
 170 0036 03F2C473 		addw	r3, r3, #1988
 171 003a 1E70     		strb	r6, [r3]
 305:.\Generated_Source\PSoC5/cyfitter_cfg.c **** 	CY_SET_XTND_REG8((void CYFAR *)CYREG_SAR0_CSR3, 0x00u);
 172              		.loc 1 305 0
 173 003c 0023     		movs	r3, #0
 174 003e 184D     		ldr	r5, .L11+20
 175 0040 2B70     		strb	r3, [r5]
 306:.\Generated_Source\PSoC5/cyfitter_cfg.c **** 	CY_SET_XTND_REG8((void CYFAR *)CYREG_SAR1_CSR1, 0x40u);
 176              		.loc 1 306 0
 177 0042 0635     		adds	r5, r5, #6
 178 0044 2E70     		strb	r6, [r5]
 307:.\Generated_Source\PSoC5/cyfitter_cfg.c **** 	CY_SET_XTND_REG8((void CYFAR *)CYREG_SAR1_CSR3, 0x00u);
 179              		.loc 1 307 0
 180 0046 0235     		adds	r5, r5, #2
 181 0048 2B70     		strb	r3, [r5]
 308:.\Generated_Source\PSoC5/cyfitter_cfg.c **** 	CY_SET_XTND_REG8((void CYFAR *)CYREG_SC0_SW7, 0x04u);
 182              		.loc 1 308 0
 183 004a 0425     		movs	r5, #4
 184 004c 154B     		ldr	r3, .L11+24
 185 004e 1D70     		strb	r5, [r3]
 309:.\Generated_Source\PSoC5/cyfitter_cfg.c **** 	CY_SET_XTND_REG8((void CYFAR *)CYREG_SC0_SW8, 0x80u);
 186              		.loc 1 309 0
 187 0050 8023     		movs	r3, #128
 188 0052 154D     		ldr	r5, .L11+28
 189 0054 2B70     		strb	r3, [r5]
 310:.\Generated_Source\PSoC5/cyfitter_cfg.c **** 	CY_SET_XTND_REG8((void CYFAR *)CYREG_SC1_SW0, 0x80u);
 190              		.loc 1 310 0
 191 0056 0835     		adds	r5, r5, #8
 192 0058 2B70     		strb	r3, [r5]
 311:.\Generated_Source\PSoC5/cyfitter_cfg.c **** 	CY_SET_XTND_REG8((void CYFAR *)CYREG_DAC2_SW0, 0x20u);
 193              		.loc 1 311 0
 194 005a 2025     		movs	r5, #32
 195 005c 134F     		ldr	r7, .L11+32
 196 005e 3D70     		strb	r5, [r7]
 312:.\Generated_Source\PSoC5/cyfitter_cfg.c **** 	CY_SET_XTND_REG8((void CYFAR *)CYREG_CMP2_SW0, 0x80u);
 197              		.loc 1 312 0
 198 0060 4037     		adds	r7, r7, #64
ARM GAS  C:\Users\Thomas\AppData\Local\Temp\ccUw3CBt.s 			page 10


 199 0062 3B70     		strb	r3, [r7]
 313:.\Generated_Source\PSoC5/cyfitter_cfg.c **** 	CY_SET_XTND_REG8((void CYFAR *)CYREG_CMP2_SW4, 0x20u);
 200              		.loc 1 313 0
 201 0064 0437     		adds	r7, r7, #4
 202 0066 3D70     		strb	r5, [r7]
 314:.\Generated_Source\PSoC5/cyfitter_cfg.c **** 	CY_SET_XTND_REG8((void CYFAR *)CYREG_SAR0_SW0, 0x80u);
 203              		.loc 1 314 0
 204 0068 4C37     		adds	r7, r7, #76
 205 006a 3B70     		strb	r3, [r7]
 315:.\Generated_Source\PSoC5/cyfitter_cfg.c **** 	CY_SET_XTND_REG8((void CYFAR *)CYREG_SAR0_SW3, 0x40u);
 206              		.loc 1 315 0
 207 006c 104B     		ldr	r3, .L11+36
 208 006e 1E70     		strb	r6, [r3]
 316:.\Generated_Source\PSoC5/cyfitter_cfg.c **** 	CY_SET_XTND_REG8((void CYFAR *)CYREG_SAR1_SW0, 0x20u);
 209              		.loc 1 316 0
 210 0070 0533     		adds	r3, r3, #5
 211 0072 1D70     		strb	r5, [r3]
 317:.\Generated_Source\PSoC5/cyfitter_cfg.c **** 	CY_SET_XTND_REG8((void CYFAR *)CYREG_SAR1_SW4, 0x10u);
 212              		.loc 1 317 0
 213 0074 1025     		movs	r5, #16
 214 0076 0433     		adds	r3, r3, #4
 215 0078 1D70     		strb	r5, [r3]
 318:.\Generated_Source\PSoC5/cyfitter_cfg.c **** 	CY_SET_XTND_REG8((void CYFAR *)(CYREG_RESET_CR5), (cr5));
 216              		.loc 1 318 0
 217 007a 2170     		strb	r1, [r4]
 319:.\Generated_Source\PSoC5/cyfitter_cfg.c **** 	CY_SET_XTND_REG8((void CYFAR *)(CYREG_RESET_CR4), (cr4));
 218              		.loc 1 319 0
 219 007c 0270     		strb	r2, [r0]
 320:.\Generated_Source\PSoC5/cyfitter_cfg.c **** 	CY_SET_XTND_REG8((void CYFAR *)CYREG_PUMP_CR0, 0x44u);
 220              		.loc 1 320 0
 221 007e 4422     		movs	r2, #68
 222              	.LVL16:
 223 0080 A3F2B623 		subw	r3, r3, #694
 224 0084 1A70     		strb	r2, [r3]
 225              	.LVL17:
 321:.\Generated_Source\PSoC5/cyfitter_cfg.c **** }
 226              		.loc 1 321 0
 227 0086 F0BC     		pop	{r4, r5, r6, r7}
 228              		.cfi_restore 7
 229              		.cfi_restore 6
 230              		.cfi_restore 5
 231              		.cfi_restore 4
 232              		.cfi_def_cfa_offset 0
 233 0088 7047     		bx	lr
 234              	.L12:
 235 008a 00BF     		.align	2
 236              	.L11:
 237 008c CF010049 		.word	1224737231
 238 0090 F8460040 		.word	1073759992
 239 0094 F9460040 		.word	1073759993
 240 0098 6E580040 		.word	1073764462
 241 009c 3D510040 		.word	1073762621
 242 00a0 03590040 		.word	1073764611
 243 00a4 075A0040 		.word	1073764871
 244 00a8 085A0040 		.word	1073764872
 245 00ac 905A0040 		.word	1073765008
 246 00b0 235B0040 		.word	1073765155
ARM GAS  C:\Users\Thomas\AppData\Local\Temp\ccUw3CBt.s 			page 11


 247              		.cfi_endproc
 248              	.LFE6:
 249              		.size	AnalogSetDefault, .-AnalogSetDefault
 250              		.section	.text.CYMEMZERO,"ax",%progbits
 251              		.align	2
 252              		.thumb
 253              		.thumb_func
 254              		.type	CYMEMZERO, %function
 255              	CYMEMZERO:
 256              	.LFB0:
  63:.\Generated_Source\PSoC5/cyfitter_cfg.c **** 	(void)memset(s, 0, n);
 257              		.loc 1 63 0
 258              		.cfi_startproc
 259              		@ args = 0, pretend = 0, frame = 0
 260              		@ frame_needed = 0, uses_anonymous_args = 0
 261              	.LVL18:
 262 0000 08B5     		push	{r3, lr}
 263              		.cfi_def_cfa_offset 8
 264              		.cfi_offset 3, -8
 265              		.cfi_offset 14, -4
 266 0002 0A46     		mov	r2, r1
  64:.\Generated_Source\PSoC5/cyfitter_cfg.c **** }
 267              		.loc 1 64 0
 268 0004 0021     		movs	r1, #0
 269              	.LVL19:
 270 0006 FFF7FEFF 		bl	memset
 271              	.LVL20:
 272 000a 08BD     		pop	{r3, pc}
 273              		.cfi_endproc
 274              	.LFE0:
 275              		.size	CYMEMZERO, .-CYMEMZERO
 276              		.section	.text.ClockSetup,"ax",%progbits
 277              		.align	2
 278              		.thumb
 279              		.thumb_func
 280              		.type	ClockSetup, %function
 281              	ClockSetup:
 282              	.LFB5:
 213:.\Generated_Source\PSoC5/cyfitter_cfg.c **** 	uint32 timeout;
 283              		.loc 1 213 0
 284              		.cfi_startproc
 285              		@ args = 0, pretend = 0, frame = 0
 286              		@ frame_needed = 0, uses_anonymous_args = 0
 287 0000 38B5     		push	{r3, r4, r5, lr}
 288              		.cfi_def_cfa_offset 16
 289              		.cfi_offset 3, -16
 290              		.cfi_offset 4, -12
 291              		.cfi_offset 5, -8
 292              		.cfi_offset 14, -4
 219:.\Generated_Source\PSoC5/cyfitter_cfg.c **** 	CY_SET_XTND_REG8((void CYFAR *)(CYREG_CLKDIST_DCFG0_CFG0 + 0x2u), 0x58u);
 293              		.loc 1 219 0
 294 0002 0024     		movs	r4, #0
 295 0004 364B     		ldr	r3, .L21
 296 0006 1C80     		strh	r4, [r3]	@ movhi
 220:.\Generated_Source\PSoC5/cyfitter_cfg.c **** 	CY_SET_XTND_REG16((void CYFAR *)(CYREG_CLKDIST_DCFG1_CFG0), 0x0003u);
 297              		.loc 1 220 0
 298 0008 5822     		movs	r2, #88
ARM GAS  C:\Users\Thomas\AppData\Local\Temp\ccUw3CBt.s 			page 12


 299 000a 0233     		adds	r3, r3, #2
 300 000c 1A70     		strb	r2, [r3]
 221:.\Generated_Source\PSoC5/cyfitter_cfg.c **** 	CY_SET_XTND_REG8((void CYFAR *)(CYREG_CLKDIST_DCFG1_CFG0 + 0x2u), 0x18u);
 301              		.loc 1 221 0
 302 000e 0322     		movs	r2, #3
 303 0010 0233     		adds	r3, r3, #2
 304 0012 1A80     		strh	r2, [r3]	@ movhi
 222:.\Generated_Source\PSoC5/cyfitter_cfg.c **** 	CY_SET_XTND_REG16((void CYFAR *)(CYREG_CLKDIST_DCFG2_CFG0), 0x0014u);
 305              		.loc 1 222 0
 306 0014 1823     		movs	r3, #24
 307 0016 334A     		ldr	r2, .L21+4
 308 0018 1370     		strb	r3, [r2]
 223:.\Generated_Source\PSoC5/cyfitter_cfg.c **** 	CY_SET_XTND_REG8((void CYFAR *)(CYREG_CLKDIST_DCFG2_CFG0 + 0x2u), 0x18u);
 309              		.loc 1 223 0
 310 001a 1422     		movs	r2, #20
 311 001c 3249     		ldr	r1, .L21+8
 312 001e 0A80     		strh	r2, [r1]	@ movhi
 224:.\Generated_Source\PSoC5/cyfitter_cfg.c **** 	CY_SET_XTND_REG16((void CYFAR *)(CYREG_CLKDIST_DCFG3_CFG0), 0x0014u);
 313              		.loc 1 224 0
 314 0020 0231     		adds	r1, r1, #2
 315 0022 0B70     		strb	r3, [r1]
 225:.\Generated_Source\PSoC5/cyfitter_cfg.c **** 	CY_SET_XTND_REG8((void CYFAR *)(CYREG_CLKDIST_DCFG3_CFG0 + 0x2u), 0x18u);
 316              		.loc 1 225 0
 317 0024 0231     		adds	r1, r1, #2
 318 0026 0A80     		strh	r2, [r1]	@ movhi
 226:.\Generated_Source\PSoC5/cyfitter_cfg.c **** 	CY_SET_XTND_REG16((void CYFAR *)(CYREG_CLKDIST_DCFG4_CFG0), 0x22B8u);
 319              		.loc 1 226 0
 320 0028 304A     		ldr	r2, .L21+12
 321 002a 1370     		strb	r3, [r2]
 227:.\Generated_Source\PSoC5/cyfitter_cfg.c **** 	CY_SET_XTND_REG8((void CYFAR *)(CYREG_CLKDIST_DCFG4_CFG0 + 0x2u), 0x18u);
 322              		.loc 1 227 0
 323 002c 42F2B821 		movw	r1, #8888
 324 0030 0232     		adds	r2, r2, #2
 325 0032 1180     		strh	r1, [r2]	@ movhi
 228:.\Generated_Source\PSoC5/cyfitter_cfg.c **** 	CY_SET_XTND_REG16((void CYFAR *)(CYREG_CLKDIST_DCFG5_CFG0), 0x5DBFu);
 326              		.loc 1 228 0
 327 0034 0232     		adds	r2, r2, #2
 328 0036 1370     		strb	r3, [r2]
 229:.\Generated_Source\PSoC5/cyfitter_cfg.c **** 	CY_SET_XTND_REG8((void CYFAR *)(CYREG_CLKDIST_DCFG5_CFG0 + 0x2u), 0x18u);
 329              		.loc 1 229 0
 330 0038 45F6BF52 		movw	r2, #23999
 331 003c 2C49     		ldr	r1, .L21+16
 332 003e 0A80     		strh	r2, [r1]	@ movhi
 230:.\Generated_Source\PSoC5/cyfitter_cfg.c **** 	CY_SET_XTND_REG16((void CYFAR *)(CYREG_CLKDIST_DCFG6_CFG0), 0x5DBFu);
 333              		.loc 1 230 0
 334 0040 0231     		adds	r1, r1, #2
 335 0042 0B70     		strb	r3, [r1]
 231:.\Generated_Source\PSoC5/cyfitter_cfg.c **** 	CY_SET_XTND_REG8((void CYFAR *)(CYREG_CLKDIST_DCFG6_CFG0 + 0x2u), 0x18u);
 336              		.loc 1 231 0
 337 0044 0231     		adds	r1, r1, #2
 338 0046 0A80     		strh	r2, [r1]	@ movhi
 232:.\Generated_Source\PSoC5/cyfitter_cfg.c **** 	CY_SET_XTND_REG16((void CYFAR *)(CYREG_CLKDIST_DCFG7_CFG0), 0x01F3u);
 339              		.loc 1 232 0
 340 0048 2A4A     		ldr	r2, .L21+20
 341 004a 1370     		strb	r3, [r2]
 233:.\Generated_Source\PSoC5/cyfitter_cfg.c **** 	CY_SET_XTND_REG8((void CYFAR *)(CYREG_CLKDIST_DCFG7_CFG0 + 0x2u), 0x1Bu);
 342              		.loc 1 233 0
ARM GAS  C:\Users\Thomas\AppData\Local\Temp\ccUw3CBt.s 			page 13


 343 004c 40F2F312 		movw	r2, #499
 344 0050 294B     		ldr	r3, .L21+24
 345 0052 1A80     		strh	r2, [r3]	@ movhi
 234:.\Generated_Source\PSoC5/cyfitter_cfg.c **** 
 346              		.loc 1 234 0
 347 0054 1B22     		movs	r2, #27
 348 0056 0233     		adds	r3, r3, #2
 349 0058 1A70     		strb	r2, [r3]
 237:.\Generated_Source\PSoC5/cyfitter_cfg.c **** 
 350              		.loc 1 237 0
 351 005a 0622     		movs	r2, #6
 352 005c 03F26223 		addw	r3, r3, #610
 353 0060 1A70     		strb	r2, [r3]
 240:.\Generated_Source\PSoC5/cyfitter_cfg.c **** 	CY_SET_XTND_REG8((void CYFAR *)(CYREG_IMO_TR1), (CY_GET_XTND_REG8((void CYFAR *)CYREG_FLSHID_CUST_
 354              		.loc 1 240 0
 355 0062 5222     		movs	r2, #82
 356 0064 A3F58073 		sub	r3, r3, #256
 357 0068 1A70     		strb	r2, [r3]
 241:.\Generated_Source\PSoC5/cyfitter_cfg.c **** 
 358              		.loc 1 241 0
 359 006a 244B     		ldr	r3, .L21+28
 360 006c 1B78     		ldrb	r3, [r3]	@ zero_extendqisi2
 361 006e DBB2     		uxtb	r3, r3
 362 0070 234A     		ldr	r2, .L21+32
 363 0072 1370     		strb	r3, [r2]
 244:.\Generated_Source\PSoC5/cyfitter_cfg.c **** 	CY_SET_XTND_REG16((void CYFAR *)(CYREG_FASTCLK_PLL_CFG0), 0x1251u);
 364              		.loc 1 244 0
 365 0074 4FF4E162 		mov	r2, #1800
 366 0078 224B     		ldr	r3, .L21+36
 367 007a 1A80     		strh	r2, [r3]	@ movhi
 245:.\Generated_Source\PSoC5/cyfitter_cfg.c **** 	/* Wait up to 250us for the PLL to lock */
 368              		.loc 1 245 0
 369 007c 41F25122 		movw	r2, #4689
 370 0080 023B     		subs	r3, r3, #2
 371 0082 1A80     		strh	r2, [r3]	@ movhi
 372              	.LVL21:
 248:.\Generated_Source\PSoC5/cyfitter_cfg.c **** 	{ 
 373              		.loc 1 248 0
 374 0084 1925     		movs	r5, #25
 375 0086 0CE0     		b	.L16
 376              	.LVL22:
 377              	.L18:
 250:.\Generated_Source\PSoC5/cyfitter_cfg.c **** 		CyDelayCycles(10u * 48u); /* Delay 10us based on 48MHz clock */
 378              		.loc 1 250 0 discriminator 4
 379 0088 1F4B     		ldr	r3, .L21+40
 380 008a 1B78     		ldrb	r3, [r3]	@ zero_extendqisi2
 381 008c 03F00103 		and	r3, r3, #1
 382 0090 43EA4404 		orr	r4, r3, r4, lsl #1
 383              	.LVL23:
 384 0094 04F00304 		and	r4, r4, #3
 385              	.LVL24:
 251:.\Generated_Source\PSoC5/cyfitter_cfg.c **** 	}
 386              		.loc 1 251 0 discriminator 4
 387 0098 4FF4F070 		mov	r0, #480
 388 009c FFF7FEFF 		bl	CyDelayCycles
 389              	.LVL25:
 248:.\Generated_Source\PSoC5/cyfitter_cfg.c **** 	{ 
ARM GAS  C:\Users\Thomas\AppData\Local\Temp\ccUw3CBt.s 			page 14


 390              		.loc 1 248 0 discriminator 4
 391 00a0 013D     		subs	r5, r5, #1
 392              	.LVL26:
 393              	.L16:
 248:.\Generated_Source\PSoC5/cyfitter_cfg.c **** 	{ 
 394              		.loc 1 248 0 is_stmt 0 discriminator 1
 395 00a2 0DB1     		cbz	r5, .L17
 248:.\Generated_Source\PSoC5/cyfitter_cfg.c **** 	{ 
 396              		.loc 1 248 0 discriminator 3
 397 00a4 032C     		cmp	r4, #3
 398 00a6 EFD1     		bne	.L18
 399              	.L17:
 254:.\Generated_Source\PSoC5/cyfitter_cfg.c **** 	{
 400              		.loc 1 254 0 is_stmt 1
 401 00a8 15B9     		cbnz	r5, .L19
 256:.\Generated_Source\PSoC5/cyfitter_cfg.c **** 	}
 402              		.loc 1 256 0
 403 00aa 0320     		movs	r0, #3
 404 00ac FFF7FEFF 		bl	CyClockStartupError
 405              	.LVL27:
 406              	.L19:
 260:.\Generated_Source\PSoC5/cyfitter_cfg.c **** 	CY_SET_XTND_REG8((void CYFAR *)(CYREG_CLKDIST_MSTR0), 0x07u);
 407              		.loc 1 260 0
 408 00b0 164A     		ldr	r2, .L21+44
 409 00b2 4FF48073 		mov	r3, #256
 410 00b6 1380     		strh	r3, [r2]	@ movhi
 261:.\Generated_Source\PSoC5/cyfitter_cfg.c **** 	CY_SET_XTND_REG8((void CYFAR *)(CYREG_CLKDIST_BCFG0), 0x00u);
 411              		.loc 1 261 0
 412 00b8 0723     		movs	r3, #7
 413 00ba 1370     		strb	r3, [r2]
 262:.\Generated_Source\PSoC5/cyfitter_cfg.c **** 	CY_SET_XTND_REG8((void CYFAR *)(CYREG_CLKDIST_BCFG2), 0x48u);
 414              		.loc 1 262 0
 415 00bc 0023     		movs	r3, #0
 416 00be 1449     		ldr	r1, .L21+48
 417 00c0 0B70     		strb	r3, [r1]
 263:.\Generated_Source\PSoC5/cyfitter_cfg.c **** 	CY_SET_XTND_REG8((void CYFAR *)(CYREG_CLKDIST_MSTR0), 0x00u);
 418              		.loc 1 263 0
 419 00c2 4820     		movs	r0, #72
 420 00c4 0231     		adds	r1, r1, #2
 421 00c6 0870     		strb	r0, [r1]
 264:.\Generated_Source\PSoC5/cyfitter_cfg.c **** 
 422              		.loc 1 264 0
 423 00c8 1370     		strb	r3, [r2]
 267:.\Generated_Source\PSoC5/cyfitter_cfg.c **** 	CY_SET_XTND_REG8((void CYFAR *)(CYREG_CLKDIST_LD), 0x02u);
 424              		.loc 1 267 0
 425 00ca 0532     		adds	r2, r2, #5
 426 00cc 1370     		strb	r3, [r2]
 268:.\Generated_Source\PSoC5/cyfitter_cfg.c **** 
 427              		.loc 1 268 0
 428 00ce 0222     		movs	r2, #2
 429 00d0 104B     		ldr	r3, .L21+52
 430 00d2 1A70     		strb	r2, [r3]
 270:.\Generated_Source\PSoC5/cyfitter_cfg.c **** }
 431              		.loc 1 270 0
 432 00d4 03F2A133 		addw	r3, r3, #929
 433 00d8 1A78     		ldrb	r2, [r3]	@ zero_extendqisi2
 434 00da FF22     		movs	r2, #255
ARM GAS  C:\Users\Thomas\AppData\Local\Temp\ccUw3CBt.s 			page 15


 435 00dc 1A70     		strb	r2, [r3]
 436 00de 38BD     		pop	{r3, r4, r5, pc}
 437              	.LVL28:
 438              	.L22:
 439              		.align	2
 440              	.L21:
 441 00e0 80400040 		.word	1073758336
 442 00e4 86400040 		.word	1073758342
 443 00e8 88400040 		.word	1073758344
 444 00ec 8E400040 		.word	1073758350
 445 00f0 94400040 		.word	1073758356
 446 00f4 9A400040 		.word	1073758362
 447 00f8 9C400040 		.word	1073758364
 448 00fc 0F010049 		.word	1224737039
 449 0100 A1460040 		.word	1073759905
 450 0104 22420040 		.word	1073758754
 451 0108 25420040 		.word	1073758757
 452 010c 04400040 		.word	1073758212
 453 0110 06400040 		.word	1073758214
 454 0114 01400040 		.word	1073758209
 455              		.cfi_endproc
 456              	.LFE5:
 457              		.size	ClockSetup, .-ClockSetup
 458              		.section	.text.CYCONFIGCPY,"ax",%progbits
 459              		.align	2
 460              		.thumb
 461              		.thumb_func
 462              		.type	CYCONFIGCPY, %function
 463              	CYCONFIGCPY:
 464              	.LFB1:
  70:.\Generated_Source\PSoC5/cyfitter_cfg.c **** 	(void)memcpy(dest, src, n);
 465              		.loc 1 70 0
 466              		.cfi_startproc
 467              		@ args = 0, pretend = 0, frame = 0
 468              		@ frame_needed = 0, uses_anonymous_args = 0
 469              	.LVL29:
 470 0000 08B5     		push	{r3, lr}
 471              		.cfi_def_cfa_offset 8
 472              		.cfi_offset 3, -8
 473              		.cfi_offset 14, -4
  71:.\Generated_Source\PSoC5/cyfitter_cfg.c **** }
 474              		.loc 1 71 0
 475 0002 FFF7FEFF 		bl	memcpy
 476              	.LVL30:
 477 0006 08BD     		pop	{r3, pc}
 478              		.cfi_endproc
 479              	.LFE1:
 480              		.size	CYCONFIGCPY, .-CYCONFIGCPY
 481              		.section	.text.SetAnalogRoutingPumps,"ax",%progbits
 482              		.align	2
 483              		.global	SetAnalogRoutingPumps
 484              		.thumb
 485              		.thumb_func
 486              		.type	SetAnalogRoutingPumps, %function
 487              	SetAnalogRoutingPumps:
 488              	.LFB7:
 322:.\Generated_Source\PSoC5/cyfitter_cfg.c **** 
ARM GAS  C:\Users\Thomas\AppData\Local\Temp\ccUw3CBt.s 			page 16


 323:.\Generated_Source\PSoC5/cyfitter_cfg.c **** 
 324:.\Generated_Source\PSoC5/cyfitter_cfg.c **** /*******************************************************************************
 325:.\Generated_Source\PSoC5/cyfitter_cfg.c **** * Function Name: SetAnalogRoutingPumps
 326:.\Generated_Source\PSoC5/cyfitter_cfg.c **** ********************************************************************************
 327:.\Generated_Source\PSoC5/cyfitter_cfg.c **** *
 328:.\Generated_Source\PSoC5/cyfitter_cfg.c **** * Summary:
 329:.\Generated_Source\PSoC5/cyfitter_cfg.c **** * Enables or disables the analog pumps feeding analog routing switches.
 330:.\Generated_Source\PSoC5/cyfitter_cfg.c **** * Intended to be called at startup, based on the Vdda system configuration;
 331:.\Generated_Source\PSoC5/cyfitter_cfg.c **** * may be called during operation when the user informs us that the Vdda voltage
 332:.\Generated_Source\PSoC5/cyfitter_cfg.c **** * crossed the pump threshold.
 333:.\Generated_Source\PSoC5/cyfitter_cfg.c **** *
 334:.\Generated_Source\PSoC5/cyfitter_cfg.c **** * Parameters:
 335:.\Generated_Source\PSoC5/cyfitter_cfg.c **** *  enabled - 1 to enable the pumps, 0 to disable the pumps
 336:.\Generated_Source\PSoC5/cyfitter_cfg.c **** *
 337:.\Generated_Source\PSoC5/cyfitter_cfg.c **** * Return:
 338:.\Generated_Source\PSoC5/cyfitter_cfg.c **** *  void
 339:.\Generated_Source\PSoC5/cyfitter_cfg.c **** *
 340:.\Generated_Source\PSoC5/cyfitter_cfg.c **** *******************************************************************************/
 341:.\Generated_Source\PSoC5/cyfitter_cfg.c **** void SetAnalogRoutingPumps(uint8 enabled)
 342:.\Generated_Source\PSoC5/cyfitter_cfg.c **** {
 489              		.loc 1 342 0
 490              		.cfi_startproc
 491              		@ args = 0, pretend = 0, frame = 0
 492              		@ frame_needed = 0, uses_anonymous_args = 0
 493              		@ link register save eliminated.
 494              	.LVL31:
 343:.\Generated_Source\PSoC5/cyfitter_cfg.c **** 	uint8 regValue = CY_GET_XTND_REG8((void CYFAR *)CYREG_PUMP_CR0);
 495              		.loc 1 343 0
 496 0000 054B     		ldr	r3, .L28
 497 0002 1B78     		ldrb	r3, [r3]	@ zero_extendqisi2
 498 0004 DBB2     		uxtb	r3, r3
 499              	.LVL32:
 344:.\Generated_Source\PSoC5/cyfitter_cfg.c **** 	if (enabled != 0u)
 500              		.loc 1 344 0
 501 0006 10B1     		cbz	r0, .L26
 345:.\Generated_Source\PSoC5/cyfitter_cfg.c **** 	{
 346:.\Generated_Source\PSoC5/cyfitter_cfg.c **** 		regValue |= 0x22u;
 502              		.loc 1 346 0
 503 0008 43F02203 		orr	r3, r3, #34
 504              	.LVL33:
 505 000c 01E0     		b	.L27
 506              	.L26:
 347:.\Generated_Source\PSoC5/cyfitter_cfg.c **** 	}
 348:.\Generated_Source\PSoC5/cyfitter_cfg.c **** 	else
 349:.\Generated_Source\PSoC5/cyfitter_cfg.c **** 	{
 350:.\Generated_Source\PSoC5/cyfitter_cfg.c **** 		regValue &= (uint8)~0x22u;
 507              		.loc 1 350 0
 508 000e 03F0DD03 		and	r3, r3, #221
 509              	.LVL34:
 510              	.L27:
 351:.\Generated_Source\PSoC5/cyfitter_cfg.c **** 	}
 352:.\Generated_Source\PSoC5/cyfitter_cfg.c **** 	CY_SET_XTND_REG8((void CYFAR *)CYREG_PUMP_CR0, regValue);
 511              		.loc 1 352 0
 512 0012 014A     		ldr	r2, .L28
 513 0014 1370     		strb	r3, [r2]
 514 0016 7047     		bx	lr
 515              	.L29:
ARM GAS  C:\Users\Thomas\AppData\Local\Temp\ccUw3CBt.s 			page 17


 516              		.align	2
 517              	.L28:
 518 0018 76580040 		.word	1073764470
 519              		.cfi_endproc
 520              	.LFE7:
 521              		.size	SetAnalogRoutingPumps, .-SetAnalogRoutingPumps
 522              		.section	.text.cyfitter_cfg,"ax",%progbits
 523              		.align	2
 524              		.global	cyfitter_cfg
 525              		.thumb
 526              		.thumb_func
 527              		.type	cyfitter_cfg, %function
 528              	cyfitter_cfg:
 529              	.LFB8:
 353:.\Generated_Source\PSoC5/cyfitter_cfg.c **** }
 354:.\Generated_Source\PSoC5/cyfitter_cfg.c **** 
 355:.\Generated_Source\PSoC5/cyfitter_cfg.c **** #define CY_AMUX_UNUSED CYREG_BOOST_SR
 356:.\Generated_Source\PSoC5/cyfitter_cfg.c **** 
 357:.\Generated_Source\PSoC5/cyfitter_cfg.c **** 
 358:.\Generated_Source\PSoC5/cyfitter_cfg.c **** /*******************************************************************************
 359:.\Generated_Source\PSoC5/cyfitter_cfg.c **** * Function Name: cyfitter_cfg
 360:.\Generated_Source\PSoC5/cyfitter_cfg.c **** ********************************************************************************
 361:.\Generated_Source\PSoC5/cyfitter_cfg.c **** * Summary:
 362:.\Generated_Source\PSoC5/cyfitter_cfg.c **** *  This function is called by the start-up code for the selected device. It
 363:.\Generated_Source\PSoC5/cyfitter_cfg.c **** *  performs all of the necessary device configuration based on the design
 364:.\Generated_Source\PSoC5/cyfitter_cfg.c **** *  settings.  This includes settings from the Design Wide Resources (DWR) such
 365:.\Generated_Source\PSoC5/cyfitter_cfg.c **** *  as Clocks and Pins as well as any component configuration that is necessary.
 366:.\Generated_Source\PSoC5/cyfitter_cfg.c **** *
 367:.\Generated_Source\PSoC5/cyfitter_cfg.c **** * Parameters:  
 368:.\Generated_Source\PSoC5/cyfitter_cfg.c **** *   void
 369:.\Generated_Source\PSoC5/cyfitter_cfg.c **** *
 370:.\Generated_Source\PSoC5/cyfitter_cfg.c **** * Return:
 371:.\Generated_Source\PSoC5/cyfitter_cfg.c **** *   void
 372:.\Generated_Source\PSoC5/cyfitter_cfg.c **** *
 373:.\Generated_Source\PSoC5/cyfitter_cfg.c **** *******************************************************************************/
 374:.\Generated_Source\PSoC5/cyfitter_cfg.c **** 
 375:.\Generated_Source\PSoC5/cyfitter_cfg.c **** void cyfitter_cfg(void)
 376:.\Generated_Source\PSoC5/cyfitter_cfg.c **** {
 530              		.loc 1 376 0
 531              		.cfi_startproc
 532              		@ args = 0, pretend = 0, frame = 0
 533              		@ frame_needed = 0, uses_anonymous_args = 0
 534 0000 38B5     		push	{r3, r4, r5, lr}
 535              		.cfi_def_cfa_offset 16
 536              		.cfi_offset 3, -16
 537              		.cfi_offset 4, -12
 538              		.cfi_offset 5, -8
 539              		.cfi_offset 14, -4
 377:.\Generated_Source\PSoC5/cyfitter_cfg.c **** #ifdef CYGlobalIntDisable
 378:.\Generated_Source\PSoC5/cyfitter_cfg.c **** 	/* Disable interrupts by default. Let user enable if/when they want. */
 379:.\Generated_Source\PSoC5/cyfitter_cfg.c **** 	CYGlobalIntDisable
 540              		.loc 1 379 0
 541              	@ 379 ".\Generated_Source\PSoC5\cyfitter_cfg.c" 1
 542 0002 72B6     		CPSID   i
 543              	@ 0 "" 2
 380:.\Generated_Source\PSoC5/cyfitter_cfg.c **** #endif
 381:.\Generated_Source\PSoC5/cyfitter_cfg.c **** 
ARM GAS  C:\Users\Thomas\AppData\Local\Temp\ccUw3CBt.s 			page 18


 382:.\Generated_Source\PSoC5/cyfitter_cfg.c **** 	/* Enable/Disable Debug functionality based on settings from System DWR */
 383:.\Generated_Source\PSoC5/cyfitter_cfg.c **** 	CY_SET_XTND_REG8((void CYFAR *)CYREG_MLOGIC_DEBUG, (CY_GET_XTND_REG8((void CYFAR *)CYREG_MLOGIC_DE
 544              		.loc 1 383 0
 545              		.thumb
 546 0004 404A     		ldr	r2, .L36
 547 0006 1378     		ldrb	r3, [r2]	@ zero_extendqisi2
 548 0008 43F00403 		orr	r3, r3, #4
 549 000c 1370     		strb	r3, [r2]
 550              	.LVL35:
 551              	.LBB3:
 384:.\Generated_Source\PSoC5/cyfitter_cfg.c **** 
 385:.\Generated_Source\PSoC5/cyfitter_cfg.c **** 	{
 386:.\Generated_Source\PSoC5/cyfitter_cfg.c **** 
 387:.\Generated_Source\PSoC5/cyfitter_cfg.c **** 		CYPACKED typedef struct {
 388:.\Generated_Source\PSoC5/cyfitter_cfg.c **** 			void CYFAR *address;
 389:.\Generated_Source\PSoC5/cyfitter_cfg.c **** 			uint16 size;
 390:.\Generated_Source\PSoC5/cyfitter_cfg.c **** 		} CYPACKED_ATTR cfg_memset_t;
 391:.\Generated_Source\PSoC5/cyfitter_cfg.c **** 
 392:.\Generated_Source\PSoC5/cyfitter_cfg.c **** 
 393:.\Generated_Source\PSoC5/cyfitter_cfg.c **** 		CYPACKED typedef struct {
 394:.\Generated_Source\PSoC5/cyfitter_cfg.c **** 			void CYFAR *dest;
 395:.\Generated_Source\PSoC5/cyfitter_cfg.c **** 			const void CYFAR *src;
 396:.\Generated_Source\PSoC5/cyfitter_cfg.c **** 			uint16 size;
 397:.\Generated_Source\PSoC5/cyfitter_cfg.c **** 		} CYPACKED_ATTR cfg_memcpy_t;
 398:.\Generated_Source\PSoC5/cyfitter_cfg.c **** 
 399:.\Generated_Source\PSoC5/cyfitter_cfg.c **** 		static const cfg_memset_t CYCODE cfg_memset_list [] = {
 400:.\Generated_Source\PSoC5/cyfitter_cfg.c **** 			/* address, size */
 401:.\Generated_Source\PSoC5/cyfitter_cfg.c **** 			{(void CYFAR *)(CYREG_PRT4_DR), 48u},
 402:.\Generated_Source\PSoC5/cyfitter_cfg.c **** 			{(void CYFAR *)(CYDEV_UCFG_B0_P0_U0_BASE), 4096u},
 403:.\Generated_Source\PSoC5/cyfitter_cfg.c **** 			{(void CYFAR *)(CYDEV_UCFG_B1_P2_U0_BASE), 2048u},
 404:.\Generated_Source\PSoC5/cyfitter_cfg.c **** 			{(void CYFAR *)(CYDEV_UCFG_DSI0_BASE), 2560u},
 405:.\Generated_Source\PSoC5/cyfitter_cfg.c **** 			{(void CYFAR *)(CYDEV_UCFG_DSI12_BASE), 512u},
 406:.\Generated_Source\PSoC5/cyfitter_cfg.c **** 			{(void CYFAR *)(CYREG_BCTL0_MDCLK_EN), 32u},
 407:.\Generated_Source\PSoC5/cyfitter_cfg.c **** 		};
 408:.\Generated_Source\PSoC5/cyfitter_cfg.c **** 
 409:.\Generated_Source\PSoC5/cyfitter_cfg.c **** 		static const cfg_memcpy_t CYCODE cfg_memcpy_list [] = {
 410:.\Generated_Source\PSoC5/cyfitter_cfg.c **** 			/* dest, src, size */
 411:.\Generated_Source\PSoC5/cyfitter_cfg.c **** 			{(void CYFAR *)(CYDEV_PRTDSI_PRT12_BASE), BS_IOPORT_7_VAL, 6u},
 412:.\Generated_Source\PSoC5/cyfitter_cfg.c **** 		};
 413:.\Generated_Source\PSoC5/cyfitter_cfg.c **** 
 414:.\Generated_Source\PSoC5/cyfitter_cfg.c **** 		uint8 CYDATA i;
 415:.\Generated_Source\PSoC5/cyfitter_cfg.c **** 
 416:.\Generated_Source\PSoC5/cyfitter_cfg.c **** 		/* Zero out critical memory blocks before beginning configuration */
 417:.\Generated_Source\PSoC5/cyfitter_cfg.c **** 		for (i = 0u; i < (sizeof(cfg_memset_list)/sizeof(cfg_memset_list[0])); i++)
 552              		.loc 1 417 0
 553 000e 0024     		movs	r4, #0
 554 0010 0CE0     		b	.L31
 555              	.LVL36:
 556              	.L32:
 557              	.LBB4:
 418:.\Generated_Source\PSoC5/cyfitter_cfg.c **** 		{
 419:.\Generated_Source\PSoC5/cyfitter_cfg.c **** 			const cfg_memset_t CYCODE * CYDATA ms = &cfg_memset_list[i];
 420:.\Generated_Source\PSoC5/cyfitter_cfg.c **** 			CYMEMZERO(ms->address, (size_t)(uint32)(ms->size));
 558              		.loc 1 420 0 discriminator 3
 559 0012 3E49     		ldr	r1, .L36+4
 560 0014 6300     		lsls	r3, r4, #1
 561 0016 1A19     		adds	r2, r3, r4
ARM GAS  C:\Users\Thomas\AppData\Local\Temp\ccUw3CBt.s 			page 19


 562 0018 5200     		lsls	r2, r2, #1
 563 001a 0A44     		add	r2, r2, r1
 564 001c 2344     		add	r3, r3, r4
 565 001e 5B00     		lsls	r3, r3, #1
 566 0020 C858     		ldr	r0, [r1, r3]	@ unaligned
 567 0022 9188     		ldrh	r1, [r2, #4]
 568 0024 FFF7FEFF 		bl	CYMEMZERO
 569              	.LVL37:
 570              	.LBE4:
 417:.\Generated_Source\PSoC5/cyfitter_cfg.c **** 		{
 571              		.loc 1 417 0 discriminator 3
 572 0028 0134     		adds	r4, r4, #1
 573              	.LVL38:
 574 002a E4B2     		uxtb	r4, r4
 575              	.LVL39:
 576              	.L31:
 417:.\Generated_Source\PSoC5/cyfitter_cfg.c **** 		{
 577              		.loc 1 417 0 is_stmt 0 discriminator 1
 578 002c 052C     		cmp	r4, #5
 579 002e F0D9     		bls	.L32
 580 0030 0024     		movs	r4, #0
 581              	.LVL40:
 582 0032 0BE0     		b	.L33
 583              	.LVL41:
 584              	.L34:
 585              	.LBB5:
 421:.\Generated_Source\PSoC5/cyfitter_cfg.c **** 		}
 422:.\Generated_Source\PSoC5/cyfitter_cfg.c **** 
 423:.\Generated_Source\PSoC5/cyfitter_cfg.c **** 		/* Copy device configuration data into registers */
 424:.\Generated_Source\PSoC5/cyfitter_cfg.c **** 		for (i = 0u; i < (sizeof(cfg_memcpy_list)/sizeof(cfg_memcpy_list[0])); i++)
 425:.\Generated_Source\PSoC5/cyfitter_cfg.c **** 		{
 426:.\Generated_Source\PSoC5/cyfitter_cfg.c **** 			const cfg_memcpy_t CYCODE * CYDATA mc = &cfg_memcpy_list[i];
 427:.\Generated_Source\PSoC5/cyfitter_cfg.c **** 			void * CYDATA destPtr = mc->dest;
 586              		.loc 1 427 0 is_stmt 1 discriminator 3
 587 0034 3549     		ldr	r1, .L36+4
 588 0036 A300     		lsls	r3, r4, #2
 589 0038 1A19     		adds	r2, r3, r4
 590 003a 5200     		lsls	r2, r2, #1
 591 003c 0A44     		add	r2, r2, r1
 592              	.LVL42:
 428:.\Generated_Source\PSoC5/cyfitter_cfg.c **** 			const void * CYDATA srcPtr = mc->src;
 429:.\Generated_Source\PSoC5/cyfitter_cfg.c **** 			uint16 CYDATA numBytes = mc->size;
 430:.\Generated_Source\PSoC5/cyfitter_cfg.c **** 			CYCONFIGCPY(destPtr, srcPtr, numBytes);
 593              		.loc 1 430 0 discriminator 3
 594 003e 506A     		ldr	r0, [r2, #36]	@ unaligned
 595              	.LVL43:
 596 0040 916A     		ldr	r1, [r2, #40]	@ unaligned
 597              	.LVL44:
 598 0042 0622     		movs	r2, #6
 599 0044 FFF7FEFF 		bl	CYCONFIGCPY
 600              	.LVL45:
 601              	.LBE5:
 424:.\Generated_Source\PSoC5/cyfitter_cfg.c **** 		{
 602              		.loc 1 424 0 discriminator 3
 603 0048 0134     		adds	r4, r4, #1
 604              	.LVL46:
 605 004a E4B2     		uxtb	r4, r4
ARM GAS  C:\Users\Thomas\AppData\Local\Temp\ccUw3CBt.s 			page 20


 606              	.LVL47:
 607              	.L33:
 424:.\Generated_Source\PSoC5/cyfitter_cfg.c **** 		{
 608              		.loc 1 424 0 is_stmt 0 discriminator 1
 609 004c 002C     		cmp	r4, #0
 610 004e F1D0     		beq	.L34
 431:.\Generated_Source\PSoC5/cyfitter_cfg.c **** 		}
 432:.\Generated_Source\PSoC5/cyfitter_cfg.c **** 
 433:.\Generated_Source\PSoC5/cyfitter_cfg.c **** 		cfg_write_bytes32(cy_cfg_addr_table, cy_cfg_data_table);
 611              		.loc 1 433 0 is_stmt 1
 612 0050 4FF09040 		mov	r0, #1207959552
 613 0054 2E49     		ldr	r1, .L36+8
 614 0056 FFF7FEFF 		bl	cfg_write_bytes32
 615              	.LVL48:
 434:.\Generated_Source\PSoC5/cyfitter_cfg.c **** 
 435:.\Generated_Source\PSoC5/cyfitter_cfg.c **** 		/* Perform normal device configuration. Order is not critical for these items. */
 436:.\Generated_Source\PSoC5/cyfitter_cfg.c **** 		CY_SET_XTND_REG16((void CYFAR *)(CYREG_LUT2_CR), 0x0203u);
 616              		.loc 1 436 0
 617 005a 40F20322 		movw	r2, #515
 618 005e 2D4B     		ldr	r3, .L36+12
 619 0060 1A80     		strh	r2, [r3]	@ movhi
 437:.\Generated_Source\PSoC5/cyfitter_cfg.c **** 		CYMEMZERO((void CYFAR *)(CYREG_PHUB_CFGMEM0_CFG0), 4u);
 620              		.loc 1 437 0
 621 0062 2D48     		ldr	r0, .L36+16
 622 0064 0421     		movs	r1, #4
 623 0066 FFF7FEFF 		bl	CYMEMZERO
 624              	.LVL49:
 438:.\Generated_Source\PSoC5/cyfitter_cfg.c **** 		CYCONFIGCPY((void CYFAR *)(CYREG_PHUB_CFGMEM1_CFG0), (const void CYFAR *)(BS_PHUB_CFGMEM1_VAL), 4
 625              		.loc 1 438 0
 626 006a 2C48     		ldr	r0, .L36+20
 627 006c 2C49     		ldr	r1, .L36+24
 628 006e 0422     		movs	r2, #4
 629 0070 FFF7FEFF 		bl	CYCONFIGCPY
 630              	.LVL50:
 439:.\Generated_Source\PSoC5/cyfitter_cfg.c **** 
 440:.\Generated_Source\PSoC5/cyfitter_cfg.c **** 		/* Enable digital routing */
 441:.\Generated_Source\PSoC5/cyfitter_cfg.c **** 		CY_SET_XTND_REG8((void CYFAR *)CYREG_BCTL0_BANK_CTL, CY_GET_XTND_REG8((void CYFAR *)CYREG_BCTL0_B
 631              		.loc 1 441 0
 632 0074 2B4A     		ldr	r2, .L36+28
 633 0076 1378     		ldrb	r3, [r2]	@ zero_extendqisi2
 634 0078 43F00203 		orr	r3, r3, #2
 635 007c 1370     		strb	r3, [r2]
 442:.\Generated_Source\PSoC5/cyfitter_cfg.c **** 		CY_SET_XTND_REG8((void CYFAR *)CYREG_BCTL1_BANK_CTL, CY_GET_XTND_REG8((void CYFAR *)CYREG_BCTL1_B
 636              		.loc 1 442 0
 637 007e 1032     		adds	r2, r2, #16
 638 0080 1378     		ldrb	r3, [r2]	@ zero_extendqisi2
 639 0082 43F00203 		orr	r3, r3, #2
 640 0086 1370     		strb	r3, [r2]
 443:.\Generated_Source\PSoC5/cyfitter_cfg.c **** 
 444:.\Generated_Source\PSoC5/cyfitter_cfg.c **** 		/* Enable UDB array */
 445:.\Generated_Source\PSoC5/cyfitter_cfg.c **** 		CY_SET_XTND_REG8((void CYFAR *)CYREG_PM_ACT_CFG0, CY_GET_XTND_REG8((void CYFAR *)CYREG_PM_ACT_CFG
 641              		.loc 1 445 0
 642 0088 274C     		ldr	r4, .L36+32
 643              	.LVL51:
 644 008a 2378     		ldrb	r3, [r4]	@ zero_extendqisi2
 645 008c 43F04003 		orr	r3, r3, #64
 646 0090 2370     		strb	r3, [r4]
ARM GAS  C:\Users\Thomas\AppData\Local\Temp\ccUw3CBt.s 			page 21


 446:.\Generated_Source\PSoC5/cyfitter_cfg.c **** 		CY_SET_XTND_REG8((void CYFAR *)CYREG_PM_AVAIL_CR2, CY_GET_XTND_REG8((void CYFAR *)CYREG_PM_AVAIL_
 647              		.loc 1 446 0
 648 0092 A2F58632 		sub	r2, r2, #68608
 649 0096 513A     		subs	r2, r2, #81
 650 0098 1378     		ldrb	r3, [r2]	@ zero_extendqisi2
 651 009a 43F01003 		orr	r3, r3, #16
 652 009e 1370     		strb	r3, [r2]
 653              	.LBE3:
 447:.\Generated_Source\PSoC5/cyfitter_cfg.c **** 	}
 448:.\Generated_Source\PSoC5/cyfitter_cfg.c **** 
 449:.\Generated_Source\PSoC5/cyfitter_cfg.c **** 
 450:.\Generated_Source\PSoC5/cyfitter_cfg.c **** 	/* Perform second pass device configuration. These items must be configured in specific order afte
 451:.\Generated_Source\PSoC5/cyfitter_cfg.c **** 	CYCONFIGCPY((void CYFAR *)(CYREG_PRT0_DM0), (const void CYFAR *)(BS_IOPINS0_0_VAL), 8u);
 654              		.loc 1 451 0
 655 00a0 2248     		ldr	r0, .L36+36
 656 00a2 2349     		ldr	r1, .L36+40
 657 00a4 0822     		movs	r2, #8
 658 00a6 FFF7FEFF 		bl	CYCONFIGCPY
 659              	.LVL52:
 452:.\Generated_Source\PSoC5/cyfitter_cfg.c **** 	CYCONFIGCPY((void CYFAR *)(CYREG_PRT12_DM0), (const void CYFAR *)(BS_IOPINS0_7_VAL), 8u);
 660              		.loc 1 452 0
 661 00aa 2248     		ldr	r0, .L36+44
 662 00ac 2249     		ldr	r1, .L36+48
 663 00ae 0822     		movs	r2, #8
 664 00b0 FFF7FEFF 		bl	CYCONFIGCPY
 665              	.LVL53:
 453:.\Generated_Source\PSoC5/cyfitter_cfg.c **** 	CYCONFIGCPY((void CYFAR *)(CYREG_PRT15_DR), (const void CYFAR *)(BS_IOPINS0_8_VAL), 10u);
 666              		.loc 1 453 0
 667 00b4 2148     		ldr	r0, .L36+52
 668 00b6 2249     		ldr	r1, .L36+56
 669 00b8 0A22     		movs	r2, #10
 670 00ba FFF7FEFF 		bl	CYCONFIGCPY
 671              	.LVL54:
 454:.\Generated_Source\PSoC5/cyfitter_cfg.c **** 	CYCONFIGCPY((void CYFAR *)(CYREG_PRT1_DR), (const void CYFAR *)(BS_IOPINS0_1_VAL), 10u);
 672              		.loc 1 454 0
 673 00be 2148     		ldr	r0, .L36+60
 674 00c0 2149     		ldr	r1, .L36+64
 675 00c2 0A22     		movs	r2, #10
 676 00c4 FFF7FEFF 		bl	CYCONFIGCPY
 677              	.LVL55:
 455:.\Generated_Source\PSoC5/cyfitter_cfg.c **** 	CYCONFIGCPY((void CYFAR *)(CYREG_PRT2_DM0), (const void CYFAR *)(BS_IOPINS0_2_VAL), 8u);
 678              		.loc 1 455 0
 679 00c8 2048     		ldr	r0, .L36+68
 680 00ca 2149     		ldr	r1, .L36+72
 681 00cc 0822     		movs	r2, #8
 682 00ce FFF7FEFF 		bl	CYCONFIGCPY
 683              	.LVL56:
 456:.\Generated_Source\PSoC5/cyfitter_cfg.c **** 	CYCONFIGCPY((void CYFAR *)(CYREG_PRT3_DM0), (const void CYFAR *)(BS_IOPINS0_3_VAL), 8u);
 684              		.loc 1 456 0
 685 00d2 2048     		ldr	r0, .L36+76
 686 00d4 2049     		ldr	r1, .L36+80
 687 00d6 0822     		movs	r2, #8
 688 00d8 FFF7FEFF 		bl	CYCONFIGCPY
 689              	.LVL57:
 457:.\Generated_Source\PSoC5/cyfitter_cfg.c **** 	/* Switch Boost to the precision bandgap reference from its internal reference */
 458:.\Generated_Source\PSoC5/cyfitter_cfg.c **** 	CY_SET_REG8((void CYXDATA *)CYREG_BOOST_CR2, (CY_GET_REG8((void CYXDATA *)CYREG_BOOST_CR2) | 0x08u
 690              		.loc 1 458 0
ARM GAS  C:\Users\Thomas\AppData\Local\Temp\ccUw3CBt.s 			page 22


 691 00dc 1F4A     		ldr	r2, .L36+84
 692 00de 1378     		ldrb	r3, [r2]	@ zero_extendqisi2
 693 00e0 43F00803 		orr	r3, r3, #8
 694 00e4 1370     		strb	r3, [r2]
 459:.\Generated_Source\PSoC5/cyfitter_cfg.c **** 
 460:.\Generated_Source\PSoC5/cyfitter_cfg.c **** 	/* Set Flash Cycles based on max possible frequency in case a glitch occurs during ClockSetup(). *
 461:.\Generated_Source\PSoC5/cyfitter_cfg.c **** 	CY_SET_XTND_REG8((void CYFAR *)(CYREG_CACHE_CC_CTL), (((CYDEV_INSTRUCT_CACHE_ENABLED) != 0) ? 0x61
 695              		.loc 1 461 0
 696 00e6 1E4D     		ldr	r5, .L36+88
 697 00e8 6123     		movs	r3, #97
 698 00ea 2B70     		strb	r3, [r5]
 462:.\Generated_Source\PSoC5/cyfitter_cfg.c **** 	/* Setup clocks based on selections from Clock DWR */
 463:.\Generated_Source\PSoC5/cyfitter_cfg.c **** 	ClockSetup();
 699              		.loc 1 463 0
 700 00ec FFF7FEFF 		bl	ClockSetup
 701              	.LVL58:
 464:.\Generated_Source\PSoC5/cyfitter_cfg.c **** 	/* Set Flash Cycles based on newly configured 24.00MHz Bus Clock. */
 465:.\Generated_Source\PSoC5/cyfitter_cfg.c **** 	CY_SET_XTND_REG8((void CYFAR *)(CYREG_CACHE_CC_CTL), (((CYDEV_INSTRUCT_CACHE_ENABLED) != 0) ? 0x81
 702              		.loc 1 465 0
 703 00f0 8123     		movs	r3, #129
 704 00f2 2B70     		strb	r3, [r5]
 466:.\Generated_Source\PSoC5/cyfitter_cfg.c **** 
 467:.\Generated_Source\PSoC5/cyfitter_cfg.c **** 	CyEEPROM_Start(); /* Start EEPROM since it is used in DWR */
 705              		.loc 1 467 0
 706 00f4 FFF7FEFF 		bl	CyEEPROM_Start
 707              	.LVL59:
 468:.\Generated_Source\PSoC5/cyfitter_cfg.c **** 
 469:.\Generated_Source\PSoC5/cyfitter_cfg.c **** 	/* Perform basic analog initialization to defaults */
 470:.\Generated_Source\PSoC5/cyfitter_cfg.c **** 	AnalogSetDefault();
 708              		.loc 1 470 0
 709 00f8 FFF7FEFF 		bl	AnalogSetDefault
 710              	.LVL60:
 471:.\Generated_Source\PSoC5/cyfitter_cfg.c **** 
 472:.\Generated_Source\PSoC5/cyfitter_cfg.c **** 	/* Configure alternate active mode */
 473:.\Generated_Source\PSoC5/cyfitter_cfg.c **** 	CYCONFIGCPY((void CYFAR *)CYDEV_PM_STBY_BASE, (const void CYFAR *)CYDEV_PM_ACT_BASE, 14u);
 711              		.loc 1 473 0
 712 00fc 1948     		ldr	r0, .L36+92
 713 00fe 2146     		mov	r1, r4
 714 0100 0E22     		movs	r2, #14
 715 0102 FFF7FEFF 		bl	CYCONFIGCPY
 716              	.LVL61:
 717 0106 38BD     		pop	{r3, r4, r5, pc}
 718              	.L37:
 719              		.align	2
 720              	.L36:
 721 0108 E8460040 		.word	1073759976
 722 010c 00000000 		.word	.LANCHOR0
 723 0110 84000048 		.word	1207959684
 724 0114 4C580040 		.word	1073764428
 725 0118 00760040 		.word	1073772032
 726 011c 08760040 		.word	1073772040
 727 0120 CC070048 		.word	1207961548
 728 0124 03500140 		.word	1073827843
 729 0128 A0430040 		.word	1073759136
 730 012c 02510040 		.word	1073762562
 731 0130 94070048 		.word	1207961492
 732 0134 C2510040 		.word	1073762754
ARM GAS  C:\Users\Thomas\AppData\Local\Temp\ccUw3CBt.s 			page 23


 733 0138 9C070048 		.word	1207961500
 734 013c F0510040 		.word	1073762800
 735 0140 A4070048 		.word	1207961508
 736 0144 10510040 		.word	1073762576
 737 0148 B0070048 		.word	1207961520
 738 014c 22510040 		.word	1073762594
 739 0150 BC070048 		.word	1207961532
 740 0154 32510040 		.word	1073762610
 741 0158 C4070048 		.word	1207961540
 742 015c 22430040 		.word	1073759010
 743 0160 00480040 		.word	1073760256
 744 0164 B0430040 		.word	1073759152
 745              		.cfi_endproc
 746              	.LFE8:
 747              		.size	cyfitter_cfg, .-cyfitter_cfg
 748              		.section	.rodata
 749              		.align	2
 750              		.set	.LANCHOR0,. + 0
 751              		.type	cfg_memset_list.4887, %object
 752              		.size	cfg_memset_list.4887, 36
 753              	cfg_memset_list.4887:
 754 0000 40510040 		.word	1073762624
 755 0004 3000     		.short	48
 756 0006 00000140 		.4byte	1073807360
 757 000a 0010     		.short	4096
 758 000c 00140140 		.word	1073812480
 759 0010 0008     		.short	2048
 760 0012 00400140 		.4byte	1073823744
 761 0016 000A     		.short	2560
 762 0018 004C0140 		.word	1073826816
 763 001c 0002     		.short	512
 764 001e 00500140 		.4byte	1073827840
 765 0022 2000     		.short	32
 766              		.type	cfg_memcpy_list.4888, %object
 767              		.size	cfg_memcpy_list.4888, 10
 768              	cfg_memcpy_list.4888:
 769 0024 60520040 		.word	1073762912
 770 0028 8C070048 		.word	1207961484
 771 002c 0600     		.short	6
 772 002e 0000     		.text
 773              	.Letext0:
 774              		.file 2 "c:\\program files (x86)\\cypress\\psoc creator\\3.3\\psoc creator\\import\\gnu\\arm\\4.9.
 775              		.file 3 ".\\Generated_Source\\PSoC5\\cytypes.h"
 776              		.file 4 ".\\Generated_Source\\PSoC5\\CyLib.h"
 777              		.file 5 ".\\Generated_Source\\PSoC5\\CyFlash.h"