ARM GAS  C:\Users\Thomas\AppData\Local\Temp\ccQj9JO7.s 			page 1


   1              		.syntax unified
   2              		.cpu cortex-m3
   3              		.fpu softvfp
   4              		.eabi_attribute 20, 1
   5              		.eabi_attribute 21, 1
   6              		.eabi_attribute 23, 3
   7              		.eabi_attribute 24, 1
   8              		.eabi_attribute 25, 1
   9              		.eabi_attribute 26, 1
  10              		.eabi_attribute 30, 1
  11              		.eabi_attribute 34, 1
  12              		.eabi_attribute 18, 4
  13              		.thumb
  14              		.file	"EEPROM.c"
  15              		.text
  16              	.Ltext0:
  17              		.cfi_sections	.debug_frame
  18              		.section	.text.EEPROM_read,"ax",%progbits
  19              		.align	2
  20              		.global	EEPROM_read
  21              		.thumb
  22              		.thumb_func
  23              		.type	EEPROM_read, %function
  24              	EEPROM_read:
  25              	.LFB63:
  26              		.file 1 ".\\EEPROM.c"
   1:.\EEPROM.c    **** /* ========================================
   2:.\EEPROM.c    ****  *
   3:.\EEPROM.c    ****  * Copyright YOUR COMPANY, THE YEAR
   4:.\EEPROM.c    ****  * All Rights Reserved
   5:.\EEPROM.c    ****  * UNPUBLISHED, LICENSED SOFTWARE.
   6:.\EEPROM.c    ****  *
   7:.\EEPROM.c    ****  * CONFIDENTIAL AND PROPRIETARY INFORMATION
   8:.\EEPROM.c    ****  * WHICH IS THE PROPERTY OF your company.
   9:.\EEPROM.c    ****  *
  10:.\EEPROM.c    ****  * ========================================
  11:.\EEPROM.c    **** */
  12:.\EEPROM.c    **** #include "EEPROM.h"
  13:.\EEPROM.c    **** #define START_EEPROM_SECTOR  (1u)
  14:.\EEPROM.c    **** #define START_BYTE         ((START_EEPROM_SECTOR * EEPROM_SIZEOF_SECTOR) + 0x00)
  15:.\EEPROM.c    **** 
  16:.\EEPROM.c    **** 
  17:.\EEPROM.c    **** size_t dataSize[255] = {0};
  18:.\EEPROM.c    **** 
  19:.\EEPROM.c    **** 
  20:.\EEPROM.c    **** char EEPROM_read(uint8 id, uint8 * data)
  21:.\EEPROM.c    **** {
  27              		.loc 1 21 0
  28              		.cfi_startproc
  29              		@ args = 0, pretend = 0, frame = 0
  30              		@ frame_needed = 0, uses_anonymous_args = 0
  31              	.LVL0:
  32 0000 F8B5     		push	{r3, r4, r5, r6, r7, lr}
  33              		.cfi_def_cfa_offset 24
  34              		.cfi_offset 3, -24
  35              		.cfi_offset 4, -20
  36              		.cfi_offset 5, -16
ARM GAS  C:\Users\Thomas\AppData\Local\Temp\ccQj9JO7.s 			page 2


  37              		.cfi_offset 6, -12
  38              		.cfi_offset 7, -8
  39              		.cfi_offset 14, -4
  40 0002 0D46     		mov	r5, r1
  41              	.LVL1:
  22:.\EEPROM.c    ****     uint32 i;
  23:.\EEPROM.c    ****     uint32 pos = 0;
  42              		.loc 1 23 0
  43 0004 0023     		movs	r3, #0
  24:.\EEPROM.c    ****     for(i = 0; i < id; i++)
  44              		.loc 1 24 0
  45 0006 1A46     		mov	r2, r3
  46 0008 05E0     		b	.L2
  47              	.LVL2:
  48              	.L3:
  25:.\EEPROM.c    ****     {
  26:.\EEPROM.c    ****         pos += dataSize[i] + 1;
  49              		.loc 1 26 0 discriminator 3
  50 000a 1449     		ldr	r1, .L9
  51 000c 51F82210 		ldr	r1, [r1, r2, lsl #2]
  52 0010 0B44     		add	r3, r3, r1
  53              	.LVL3:
  54 0012 0133     		adds	r3, r3, #1
  55              	.LVL4:
  24:.\EEPROM.c    ****     for(i = 0; i < id; i++)
  56              		.loc 1 24 0 discriminator 3
  57 0014 0132     		adds	r2, r2, #1
  58              	.LVL5:
  59              	.L2:
  24:.\EEPROM.c    ****     for(i = 0; i < id; i++)
  60              		.loc 1 24 0 is_stmt 0 discriminator 1
  61 0016 9042     		cmp	r0, r2
  62 0018 F7D8     		bhi	.L3
  27:.\EEPROM.c    ****     }
  28:.\EEPROM.c    ****     
  29:.\EEPROM.c    ****     if(EEPROM_1_ReadByte(START_BYTE + pos + dataSize[id]) != 0x33)
  63              		.loc 1 29 0 is_stmt 1
  64 001a 0746     		mov	r7, r0
  65 001c 0F4A     		ldr	r2, .L9
  66              	.LVL6:
  67 001e 52F82000 		ldr	r0, [r2, r0, lsl #2]
  68              	.LVL7:
  69 0022 9CB2     		uxth	r4, r3
  70 0024 2044     		add	r0, r0, r4
  71 0026 00F58060 		add	r0, r0, #1024
  72 002a 80B2     		uxth	r0, r0
  73 002c FFF7FEFF 		bl	EEPROM_1_ReadByte
  74              	.LVL8:
  75 0030 3328     		cmp	r0, #51
  76 0032 10D1     		bne	.L7
  77 0034 0026     		movs	r6, #0
  78 0036 07E0     		b	.L5
  79              	.LVL9:
  80              	.L6:
  30:.\EEPROM.c    ****     {
  31:.\EEPROM.c    ****         return 0; // ikke noget gemt data
  32:.\EEPROM.c    ****     }
ARM GAS  C:\Users\Thomas\AppData\Local\Temp\ccQj9JO7.s 			page 3


  33:.\EEPROM.c    ****     
  34:.\EEPROM.c    ****     for(i = 0; i < dataSize[id]; i++)
  35:.\EEPROM.c    ****     {
  36:.\EEPROM.c    ****         data[i] = EEPROM_1_ReadByte(START_BYTE + pos + i);
  81              		.loc 1 36 0 discriminator 3
  82 0038 A019     		adds	r0, r4, r6
  83 003a 00F58060 		add	r0, r0, #1024
  84 003e 80B2     		uxth	r0, r0
  85 0040 FFF7FEFF 		bl	EEPROM_1_ReadByte
  86              	.LVL10:
  87 0044 A855     		strb	r0, [r5, r6]
  34:.\EEPROM.c    ****     {
  88              		.loc 1 34 0 discriminator 3
  89 0046 0136     		adds	r6, r6, #1
  90              	.LVL11:
  91              	.L5:
  34:.\EEPROM.c    ****     {
  92              		.loc 1 34 0 is_stmt 0 discriminator 1
  93 0048 044B     		ldr	r3, .L9
  94 004a 53F82730 		ldr	r3, [r3, r7, lsl #2]
  95 004e B342     		cmp	r3, r6
  96 0050 F2D8     		bhi	.L6
  37:.\EEPROM.c    ****     }
  38:.\EEPROM.c    ****     
  39:.\EEPROM.c    ****     return 1;
  97              		.loc 1 39 0 is_stmt 1
  98 0052 0120     		movs	r0, #1
  99 0054 F8BD     		pop	{r3, r4, r5, r6, r7, pc}
 100              	.LVL12:
 101              	.L7:
  31:.\EEPROM.c    ****     }
 102              		.loc 1 31 0
 103 0056 0020     		movs	r0, #0
  40:.\EEPROM.c    **** }
 104              		.loc 1 40 0
 105 0058 F8BD     		pop	{r3, r4, r5, r6, r7, pc}
 106              	.LVL13:
 107              	.L10:
 108 005a 00BF     		.align	2
 109              	.L9:
 110 005c 00000000 		.word	.LANCHOR0
 111              		.cfi_endproc
 112              	.LFE63:
 113              		.size	EEPROM_read, .-EEPROM_read
 114              		.section	.text.EEPROM_write,"ax",%progbits
 115              		.align	2
 116              		.global	EEPROM_write
 117              		.thumb
 118              		.thumb_func
 119              		.type	EEPROM_write, %function
 120              	EEPROM_write:
 121              	.LFB64:
  41:.\EEPROM.c    **** 
  42:.\EEPROM.c    **** 
  43:.\EEPROM.c    **** char EEPROM_write(uint8 id, const uint8 * data)
  44:.\EEPROM.c    **** {
 122              		.loc 1 44 0
ARM GAS  C:\Users\Thomas\AppData\Local\Temp\ccQj9JO7.s 			page 4


 123              		.cfi_startproc
 124              		@ args = 0, pretend = 0, frame = 0
 125              		@ frame_needed = 0, uses_anonymous_args = 0
 126              	.LVL14:
 127 0000 F8B5     		push	{r3, r4, r5, r6, r7, lr}
 128              		.cfi_def_cfa_offset 24
 129              		.cfi_offset 3, -24
 130              		.cfi_offset 4, -20
 131              		.cfi_offset 5, -16
 132              		.cfi_offset 6, -12
 133              		.cfi_offset 7, -8
 134              		.cfi_offset 14, -4
 135              	.LVL15:
  45:.\EEPROM.c    ****     uint32 i;
  46:.\EEPROM.c    ****     uint32 pos = 0;
 136              		.loc 1 46 0
 137 0002 0024     		movs	r4, #0
  47:.\EEPROM.c    ****     for(i = 0; i < id; i++)
 138              		.loc 1 47 0
 139 0004 2346     		mov	r3, r4
 140 0006 05E0     		b	.L12
 141              	.LVL16:
 142              	.L13:
  48:.\EEPROM.c    ****     {
  49:.\EEPROM.c    ****         pos += dataSize[i] + 1;
 143              		.loc 1 49 0 discriminator 3
 144 0008 164A     		ldr	r2, .L21
 145 000a 52F82320 		ldr	r2, [r2, r3, lsl #2]
 146 000e 2244     		add	r2, r2, r4
 147 0010 541C     		adds	r4, r2, #1
 148              	.LVL17:
  47:.\EEPROM.c    ****     for(i = 0; i < id; i++)
 149              		.loc 1 47 0 discriminator 3
 150 0012 0133     		adds	r3, r3, #1
 151              	.LVL18:
 152              	.L12:
  47:.\EEPROM.c    ****     for(i = 0; i < id; i++)
 153              		.loc 1 47 0 is_stmt 0 discriminator 1
 154 0014 9842     		cmp	r0, r3
 155 0016 F7D8     		bhi	.L13
  50:.\EEPROM.c    ****     }
  51:.\EEPROM.c    ****     
  52:.\EEPROM.c    ****     if(dataSize[id] == 0)
 156              		.loc 1 52 0 is_stmt 1
 157 0018 0646     		mov	r6, r0
 158 001a 124B     		ldr	r3, .L21
 159              	.LVL19:
 160 001c 53F82030 		ldr	r3, [r3, r0, lsl #2]
 161 0020 D3B1     		cbz	r3, .L17
 162 0022 0F46     		mov	r7, r1
 163 0024 0025     		movs	r5, #0
 164 0026 08E0     		b	.L15
 165              	.LVL20:
 166              	.L16:
  53:.\EEPROM.c    ****         return -1;
  54:.\EEPROM.c    ****     
  55:.\EEPROM.c    ****     for(i = 0; i < dataSize[id]; i++)
ARM GAS  C:\Users\Thomas\AppData\Local\Temp\ccQj9JO7.s 			page 5


  56:.\EEPROM.c    ****     {
  57:.\EEPROM.c    ****         if(EEPROM_1_WriteByte((uint8)data[i], START_BYTE + pos + i) != CYRET_SUCCESS)
 167              		.loc 1 57 0
 168 0028 6119     		adds	r1, r4, r5
 169 002a 01F58061 		add	r1, r1, #1024
 170 002e 785D     		ldrb	r0, [r7, r5]	@ zero_extendqisi2
 171 0030 89B2     		uxth	r1, r1
 172 0032 FFF7FEFF 		bl	EEPROM_1_WriteByte
 173              	.LVL21:
 174 0036 88B9     		cbnz	r0, .L18
  55:.\EEPROM.c    ****     {
 175              		.loc 1 55 0 discriminator 2
 176 0038 0135     		adds	r5, r5, #1
 177              	.LVL22:
 178              	.L15:
  55:.\EEPROM.c    ****     {
 179              		.loc 1 55 0 is_stmt 0 discriminator 1
 180 003a 0A4B     		ldr	r3, .L21
 181 003c 53F82620 		ldr	r2, [r3, r6, lsl #2]
 182 0040 AA42     		cmp	r2, r5
 183 0042 F1D8     		bhi	.L16
  58:.\EEPROM.c    ****         {
  59:.\EEPROM.c    ****             return -1; //fejl i tilskrivning
  60:.\EEPROM.c    ****         }
  61:.\EEPROM.c    ****     }
  62:.\EEPROM.c    ****     
  63:.\EEPROM.c    ****     if(EEPROM_1_WriteByte(0x33, START_BYTE + pos + dataSize[id]) != CYRET_SUCCESS)
 184              		.loc 1 63 0 is_stmt 1
 185 0044 2244     		add	r2, r2, r4
 186 0046 02F58061 		add	r1, r2, #1024
 187 004a 3320     		movs	r0, #51
 188 004c 89B2     		uxth	r1, r1
 189 004e FFF7FEFF 		bl	EEPROM_1_WriteByte
 190              	.LVL23:
 191 0052 28B1     		cbz	r0, .L19
  64:.\EEPROM.c    ****     {
  65:.\EEPROM.c    ****         return -1; //fejl i tilskrivning
 192              		.loc 1 65 0
 193 0054 FF20     		movs	r0, #255
 194 0056 F8BD     		pop	{r3, r4, r5, r6, r7, pc}
 195              	.LVL24:
 196              	.L17:
  53:.\EEPROM.c    ****     
 197              		.loc 1 53 0
 198 0058 FF20     		movs	r0, #255
 199              	.LVL25:
 200 005a F8BD     		pop	{r3, r4, r5, r6, r7, pc}
 201              	.LVL26:
 202              	.L18:
  59:.\EEPROM.c    ****         }
 203              		.loc 1 59 0
 204 005c FF20     		movs	r0, #255
 205 005e F8BD     		pop	{r3, r4, r5, r6, r7, pc}
 206              	.LVL27:
 207              	.L19:
  66:.\EEPROM.c    ****     }
  67:.\EEPROM.c    ****     
ARM GAS  C:\Users\Thomas\AppData\Local\Temp\ccQj9JO7.s 			page 6


  68:.\EEPROM.c    ****     return 1;
 208              		.loc 1 68 0
 209 0060 0120     		movs	r0, #1
  69:.\EEPROM.c    **** }
 210              		.loc 1 69 0
 211 0062 F8BD     		pop	{r3, r4, r5, r6, r7, pc}
 212              	.LVL28:
 213              	.L22:
 214              		.align	2
 215              	.L21:
 216 0064 00000000 		.word	.LANCHOR0
 217              		.cfi_endproc
 218              	.LFE64:
 219              		.size	EEPROM_write, .-EEPROM_write
 220              		.section	.text.EEPROM_init,"ax",%progbits
 221              		.align	2
 222              		.global	EEPROM_init
 223              		.thumb
 224              		.thumb_func
 225              		.type	EEPROM_init, %function
 226              	EEPROM_init:
 227              	.LFB65:
  70:.\EEPROM.c    **** 
  71:.\EEPROM.c    **** char EEPROM_init(const size_t * types, uint8 count)
  72:.\EEPROM.c    **** {
 228              		.loc 1 72 0
 229              		.cfi_startproc
 230              		@ args = 0, pretend = 0, frame = 0
 231              		@ frame_needed = 0, uses_anonymous_args = 0
 232              	.LVL29:
 233 0000 38B5     		push	{r3, r4, r5, lr}
 234              		.cfi_def_cfa_offset 16
 235              		.cfi_offset 3, -16
 236              		.cfi_offset 4, -12
 237              		.cfi_offset 5, -8
 238              		.cfi_offset 14, -4
 239 0002 0446     		mov	r4, r0
 240 0004 0D46     		mov	r5, r1
  73:.\EEPROM.c    ****     EEPROM_1_Start();
 241              		.loc 1 73 0
 242 0006 FFF7FEFF 		bl	EEPROM_1_Start
 243              	.LVL30:
  74:.\EEPROM.c    ****     uint8 i;
  75:.\EEPROM.c    ****     
  76:.\EEPROM.c    ****     uint32 size = 0;
 244              		.loc 1 76 0
 245 000a 0022     		movs	r2, #0
  77:.\EEPROM.c    ****     
  78:.\EEPROM.c    ****     for(i = 0; i < count; i++)
 246              		.loc 1 78 0
 247 000c 1346     		mov	r3, r2
 248 000e 09E0     		b	.L24
 249              	.LVL31:
 250              	.L25:
  79:.\EEPROM.c    ****     {
  80:.\EEPROM.c    ****         dataSize[i] = types[i];   
 251              		.loc 1 80 0 discriminator 3
ARM GAS  C:\Users\Thomas\AppData\Local\Temp\ccQj9JO7.s 			page 7


 252 0010 54F82300 		ldr	r0, [r4, r3, lsl #2]
 253 0014 0849     		ldr	r1, .L29
 254 0016 41F82300 		str	r0, [r1, r3, lsl #2]
  81:.\EEPROM.c    ****         size += types[i];
 255              		.loc 1 81 0 discriminator 3
 256 001a 54F82310 		ldr	r1, [r4, r3, lsl #2]
 257 001e 0A44     		add	r2, r2, r1
 258              	.LVL32:
  78:.\EEPROM.c    ****     {
 259              		.loc 1 78 0 discriminator 3
 260 0020 0133     		adds	r3, r3, #1
 261              	.LVL33:
 262 0022 DBB2     		uxtb	r3, r3
 263              	.LVL34:
 264              	.L24:
  78:.\EEPROM.c    ****     {
 265              		.loc 1 78 0 is_stmt 0 discriminator 1
 266 0024 AB42     		cmp	r3, r5
 267 0026 F3D3     		bcc	.L25
  82:.\EEPROM.c    ****     }
  83:.\EEPROM.c    ****     
  84:.\EEPROM.c    ****     if(size > EEPROM_SIZEOF_SECTOR)
 268              		.loc 1 84 0 is_stmt 1
 269 0028 B2F5806F 		cmp	r2, #1024
 270 002c 01D9     		bls	.L27
  85:.\EEPROM.c    ****     {
  86:.\EEPROM.c    ****         return -1;   //EEPROM er ikke stor nok.
 271              		.loc 1 86 0
 272 002e FF20     		movs	r0, #255
 273 0030 38BD     		pop	{r3, r4, r5, pc}
 274              	.LVL35:
 275              	.L27:
  87:.\EEPROM.c    ****     }
  88:.\EEPROM.c    ****     
  89:.\EEPROM.c    ****     
  90:.\EEPROM.c    ****     
  91:.\EEPROM.c    ****     return 1;
 276              		.loc 1 91 0
 277 0032 0120     		movs	r0, #1
  92:.\EEPROM.c    **** }
 278              		.loc 1 92 0
 279 0034 38BD     		pop	{r3, r4, r5, pc}
 280              	.LVL36:
 281              	.L30:
 282 0036 00BF     		.align	2
 283              	.L29:
 284 0038 00000000 		.word	.LANCHOR0
 285              		.cfi_endproc
 286              	.LFE65:
 287              		.size	EEPROM_init, .-EEPROM_init
 288              		.global	dataSize
 289              		.bss
 290              		.align	2
 291              		.set	.LANCHOR0,. + 0
 292              		.type	dataSize, %object
 293              		.size	dataSize, 1020
 294              	dataSize:
ARM GAS  C:\Users\Thomas\AppData\Local\Temp\ccQj9JO7.s 			page 8


 295 0000 00000000 		.space	1020
 295      00000000 
 295      00000000 
 295      00000000 
 295      00000000 
 296              		.text
 297              	.Letext0:
 298              		.file 2 "c:\\program files (x86)\\cypress\\psoc creator\\3.3\\psoc creator\\import\\gnu\\arm\\4.9.
 299              		.file 3 "c:\\program files (x86)\\cypress\\psoc creator\\3.3\\psoc creator\\import\\gnu\\arm\\4.9.
 300              		.file 4 "Generated_Source\\PSoC5/cytypes.h"
 301              		.file 5 "c:\\program files (x86)\\cypress\\psoc creator\\3.3\\psoc creator\\import\\gnu\\arm\\4.9.
 302              		.file 6 "Generated_Source\\PSoC5/core_cm3.h"
 303              		.file 7 "Generated_Source\\PSoC5/EEPROM_1.h"