ARM GAS  C:\Users\Thomas\AppData\Local\Temp\cc5AWIlU.s 			page 1


   1              		.syntax unified
   2              		.cpu cortex-m3
   3              		.fpu softvfp
   4              		.eabi_attribute 20, 1
   5              		.eabi_attribute 21, 1
   6              		.eabi_attribute 23, 3
   7              		.eabi_attribute 24, 1
   8              		.eabi_attribute 25, 1
   9              		.eabi_attribute 26, 1
  10              		.eabi_attribute 30, 1
  11              		.eabi_attribute 34, 1
  12              		.eabi_attribute 18, 4
  13              		.thumb
  14              		.file	"effectSensor.c"
  15              		.text
  16              	.Ltext0:
  17              		.cfi_sections	.debug_frame
  18              		.section	.text.ISR_AMP,"ax",%progbits
  19              		.align	2
  20              		.global	ISR_AMP
  21              		.thumb
  22              		.thumb_func
  23              		.type	ISR_AMP, %function
  24              	ISR_AMP:
  25              	.LFB63:
  26              		.file 1 ".\\effectSensor.c"
   1:.\effectSensor.c **** /* ========================================
   2:.\effectSensor.c ****  *
   3:.\effectSensor.c ****  * Copyright YOUR COMPANY, THE YEAR
   4:.\effectSensor.c ****  * All Rights Reserved
   5:.\effectSensor.c ****  * UNPUBLISHED, LICENSED SOFTWARE.
   6:.\effectSensor.c ****  *
   7:.\effectSensor.c ****  * CONFIDENTIAL AND PROPRIETARY INFORMATION
   8:.\effectSensor.c ****  * WHICH IS THE PROPERTY OF your company.
   9:.\effectSensor.c ****  *
  10:.\effectSensor.c ****  * ========================================
  11:.\effectSensor.c **** */
  12:.\effectSensor.c **** #include "effectSensor.h"
  13:.\effectSensor.c **** #define effect_sensor_OFFSET 5000 //mV
  14:.\effectSensor.c **** int16 Current_temp = 0;
  15:.\effectSensor.c **** int16 Volt_temp = 0;
  16:.\effectSensor.c **** 
  17:.\effectSensor.c **** int16 Volt_offset = 0;
  18:.\effectSensor.c **** int16 Current_offset = 0;
  19:.\effectSensor.c **** 
  20:.\effectSensor.c **** 
  21:.\effectSensor.c **** int32 y_Current = 0;
  22:.\effectSensor.c **** int32 y_Volt = 0;
  23:.\effectSensor.c **** 
  24:.\effectSensor.c **** uint8 a = 3; // fra 0 til 255! er lig med 0-1.
  25:.\effectSensor.c **** 
  26:.\effectSensor.c **** 
  27:.\effectSensor.c **** void DMA_ADC_A_V_init();
  28:.\effectSensor.c **** 
  29:.\effectSensor.c **** CY_ISR_PROTO(ISR_AMP);
  30:.\effectSensor.c **** 
  31:.\effectSensor.c **** CY_ISR_PROTO(ISR_VOLT);
ARM GAS  C:\Users\Thomas\AppData\Local\Temp\cc5AWIlU.s 			page 2


  32:.\effectSensor.c **** 
  33:.\effectSensor.c **** void VDACSetOffset(int16 Current);
  34:.\effectSensor.c **** 
  35:.\effectSensor.c **** 
  36:.\effectSensor.c **** CY_ISR(ISR_AMP)
  37:.\effectSensor.c **** {
  27              		.loc 1 37 0
  28              		.cfi_startproc
  29              		@ args = 0, pretend = 0, frame = 0
  30              		@ frame_needed = 0, uses_anonymous_args = 0
  31              		@ link register save eliminated.
  32 0000 10B4     		push	{r4}
  33              		.cfi_def_cfa_offset 4
  34              		.cfi_offset 4, -4
  38:.\effectSensor.c ****     y_Current = (int32)a*(int32)Current_temp + (((int32)(256u-a)*(int32)y_Current)>>8);
  35              		.loc 1 38 0
  36 0002 084B     		ldr	r3, .L3
  37 0004 1A78     		ldrb	r2, [r3]	@ zero_extendqisi2
  38 0006 0849     		ldr	r1, .L3+4
  39 0008 B1F90000 		ldrsh	r0, [r1]
  40 000c C2F58074 		rsb	r4, r2, #256
  41 0010 4B68     		ldr	r3, [r1, #4]
  42 0012 03FB04F3 		mul	r3, r3, r4
  43 0016 1B12     		asrs	r3, r3, #8
  44 0018 00FB0233 		mla	r3, r0, r2, r3
  45 001c 4B60     		str	r3, [r1, #4]
  39:.\effectSensor.c **** }
  46              		.loc 1 39 0
  47 001e 5DF8044B 		ldr	r4, [sp], #4
  48              		.cfi_restore 4
  49              		.cfi_def_cfa_offset 0
  50 0022 7047     		bx	lr
  51              	.L4:
  52              		.align	2
  53              	.L3:
  54 0024 00000000 		.word	.LANCHOR0
  55 0028 00000000 		.word	.LANCHOR1
  56              		.cfi_endproc
  57              	.LFE63:
  58              		.size	ISR_AMP, .-ISR_AMP
  59              		.section	.text.ISR_VOLT,"ax",%progbits
  60              		.align	2
  61              		.global	ISR_VOLT
  62              		.thumb
  63              		.thumb_func
  64              		.type	ISR_VOLT, %function
  65              	ISR_VOLT:
  66              	.LFB64:
  40:.\effectSensor.c **** 
  41:.\effectSensor.c **** 
  42:.\effectSensor.c **** CY_ISR(ISR_VOLT)
  43:.\effectSensor.c **** {
  67              		.loc 1 43 0
  68              		.cfi_startproc
  69              		@ args = 0, pretend = 0, frame = 0
  70              		@ frame_needed = 0, uses_anonymous_args = 0
  71              		@ link register save eliminated.
ARM GAS  C:\Users\Thomas\AppData\Local\Temp\cc5AWIlU.s 			page 3


  72 0000 10B4     		push	{r4}
  73              		.cfi_def_cfa_offset 4
  74              		.cfi_offset 4, -4
  44:.\effectSensor.c ****     y_Volt = (int32)a*(int32)Volt_temp + (((int32)(256u-a)*(int32)y_Volt)>>8);
  75              		.loc 1 44 0
  76 0002 084B     		ldr	r3, .L7
  77 0004 1A78     		ldrb	r2, [r3]	@ zero_extendqisi2
  78 0006 0849     		ldr	r1, .L7+4
  79 0008 B1F90800 		ldrsh	r0, [r1, #8]
  80 000c C2F58074 		rsb	r4, r2, #256
  81 0010 CB68     		ldr	r3, [r1, #12]
  82 0012 03FB04F3 		mul	r3, r3, r4
  83 0016 1B12     		asrs	r3, r3, #8
  84 0018 00FB0233 		mla	r3, r0, r2, r3
  85 001c CB60     		str	r3, [r1, #12]
  45:.\effectSensor.c **** }
  86              		.loc 1 45 0
  87 001e 5DF8044B 		ldr	r4, [sp], #4
  88              		.cfi_restore 4
  89              		.cfi_def_cfa_offset 0
  90 0022 7047     		bx	lr
  91              	.L8:
  92              		.align	2
  93              	.L7:
  94 0024 00000000 		.word	.LANCHOR0
  95 0028 00000000 		.word	.LANCHOR1
  96              		.cfi_endproc
  97              	.LFE64:
  98              		.size	ISR_VOLT, .-ISR_VOLT
  99              		.section	.text.effectSensor_calibrate,"ax",%progbits
 100              		.align	2
 101              		.global	effectSensor_calibrate
 102              		.thumb
 103              		.thumb_func
 104              		.type	effectSensor_calibrate, %function
 105              	effectSensor_calibrate:
 106              	.LFB66:
  46:.\effectSensor.c **** 
  47:.\effectSensor.c **** void effectSensor_init(int16 Volt, int16 Current)
  48:.\effectSensor.c **** {
  49:.\effectSensor.c ****     Volt_offset = Volt;
  50:.\effectSensor.c ****     Current_offset = Current;
  51:.\effectSensor.c ****     
  52:.\effectSensor.c ****     
  53:.\effectSensor.c ****     PGA_1_Start();
  54:.\effectSensor.c ****     PGA_2_Start();
  55:.\effectSensor.c ****    // Opamp_1_Start();
  56:.\effectSensor.c ****     
  57:.\effectSensor.c ****     ADC_A_Start();
  58:.\effectSensor.c ****     ADC_V_Start();
  59:.\effectSensor.c ****     ADC_A_StartConvert();
  60:.\effectSensor.c ****     ADC_V_StartConvert();
  61:.\effectSensor.c ****     
  62:.\effectSensor.c ****     isr_A_StartEx(ISR_AMP);
  63:.\effectSensor.c ****     isr_V_StartEx(ISR_VOLT);
  64:.\effectSensor.c ****     
  65:.\effectSensor.c ****     DMA_ADC_A_V_init();
ARM GAS  C:\Users\Thomas\AppData\Local\Temp\cc5AWIlU.s 			page 4


  66:.\effectSensor.c ****     
  67:.\effectSensor.c ****     //VDACSetOffset(Current_offset);
  68:.\effectSensor.c ****     VDAC8_1_Start();
  69:.\effectSensor.c ****     CyDelay(100);
  70:.\effectSensor.c ****     Comp_1_Start();
  71:.\effectSensor.c **** }
  72:.\effectSensor.c **** 
  73:.\effectSensor.c **** void effectSensor_calibrate(int16 * Volt, int16 * Current)
  74:.\effectSensor.c **** {
 107              		.loc 1 74 0
 108              		.cfi_startproc
 109              		@ args = 0, pretend = 0, frame = 0
 110              		@ frame_needed = 0, uses_anonymous_args = 0
 111              	.LVL0:
 112 0000 F8B5     		push	{r3, r4, r5, r6, r7, lr}
 113              		.cfi_def_cfa_offset 24
 114              		.cfi_offset 3, -24
 115              		.cfi_offset 4, -20
 116              		.cfi_offset 5, -16
 117              		.cfi_offset 6, -12
 118              		.cfi_offset 7, -8
 119              		.cfi_offset 14, -4
 120 0002 0646     		mov	r6, r0
 121 0004 0D46     		mov	r5, r1
  75:.\effectSensor.c ****     uint8 a_tmp = a;
 122              		.loc 1 75 0
 123 0006 0B4C     		ldr	r4, .L11
 124 0008 2778     		ldrb	r7, [r4]	@ zero_extendqisi2
 125              	.LVL1:
  76:.\effectSensor.c ****     a = 1;
 126              		.loc 1 76 0
 127 000a 0123     		movs	r3, #1
 128 000c 2370     		strb	r3, [r4]
  77:.\effectSensor.c ****     CyDelay(10000);
 129              		.loc 1 77 0
 130 000e 42F21070 		movw	r0, #10000
 131              	.LVL2:
 132 0012 FFF7FEFF 		bl	CyDelay
 133              	.LVL3:
  78:.\effectSensor.c ****     Volt_offset = (int16)(y_Volt>>8);
 134              		.loc 1 78 0
 135 0016 084B     		ldr	r3, .L11+4
 136 0018 DA68     		ldr	r2, [r3, #12]
 137 001a C2F30F22 		ubfx	r2, r2, #8, #16
 138 001e 1A82     		strh	r2, [r3, #16]	@ movhi
  79:.\effectSensor.c ****     Current_offset = (int16)(y_Current>>8);
 139              		.loc 1 79 0
 140 0020 5968     		ldr	r1, [r3, #4]
 141 0022 C1F30F21 		ubfx	r1, r1, #8, #16
 142 0026 5982     		strh	r1, [r3, #18]	@ movhi
  80:.\effectSensor.c ****     
  81:.\effectSensor.c ****     a = a_tmp;
 143              		.loc 1 81 0
 144 0028 2770     		strb	r7, [r4]
  82:.\effectSensor.c ****     
  83:.\effectSensor.c ****     *Volt = Volt_offset;
 145              		.loc 1 83 0
ARM GAS  C:\Users\Thomas\AppData\Local\Temp\cc5AWIlU.s 			page 5


 146 002a 3280     		strh	r2, [r6]	@ movhi
  84:.\effectSensor.c ****     *Current = Current_offset;
 147              		.loc 1 84 0
 148 002c 5B8A     		ldrh	r3, [r3, #18]
 149 002e 2B80     		strh	r3, [r5]	@ movhi
 150 0030 F8BD     		pop	{r3, r4, r5, r6, r7, pc}
 151              	.LVL4:
 152              	.L12:
 153 0032 00BF     		.align	2
 154              	.L11:
 155 0034 00000000 		.word	.LANCHOR0
 156 0038 00000000 		.word	.LANCHOR1
 157              		.cfi_endproc
 158              	.LFE66:
 159              		.size	effectSensor_calibrate, .-effectSensor_calibrate
 160              		.global	__aeabi_ui2d
 161              		.global	__aeabi_dmul
 162              		.global	__aeabi_d2uiz
 163              		.global	__aeabi_uldivmod
 164              		.section	.text.effectSensor_getValue,"ax",%progbits
 165              		.align	2
 166              		.global	effectSensor_getValue
 167              		.thumb
 168              		.thumb_func
 169              		.type	effectSensor_getValue, %function
 170              	effectSensor_getValue:
 171              	.LFB67:
  85:.\effectSensor.c ****     //VDACSetOffset(ADC_A_CountsTo_mVolts(Current_offset)-effect_sensor_OFFSET);
  86:.\effectSensor.c **** }
  87:.\effectSensor.c **** 
  88:.\effectSensor.c **** /*
  89:.\effectSensor.c **** 
  90:.\effectSensor.c **** void VDACSetOffset(int16 Current)
  91:.\effectSensor.c **** {
  92:.\effectSensor.c ****     uint8 calc = (uint8)(200+(int8)(Current>>4)); // 200 => 3200mV
  93:.\effectSensor.c ****     //VDAC8_1_SetValue(calc); 
  94:.\effectSensor.c ****     Control_Reg_motor_reset_Write(1u);
  95:.\effectSensor.c **** }
  96:.\effectSensor.c **** */
  97:.\effectSensor.c **** 
  98:.\effectSensor.c **** 
  99:.\effectSensor.c **** 
 100:.\effectSensor.c **** uint16 effectSensor_getValue()
 101:.\effectSensor.c **** {
 172              		.loc 1 101 0
 173              		.cfi_startproc
 174              		@ args = 0, pretend = 0, frame = 0
 175              		@ frame_needed = 0, uses_anonymous_args = 0
 176 0000 38B5     		push	{r3, r4, r5, lr}
 177              		.cfi_def_cfa_offset 16
 178              		.cfi_offset 3, -16
 179              		.cfi_offset 4, -12
 180              		.cfi_offset 5, -8
 181              		.cfi_offset 14, -4
 102:.\effectSensor.c ****     int16 rawVolt = ADC_V_CountsTo_mVolts((int16)(y_Volt>>8)-Volt_offset); // mangler validering
 182              		.loc 1 102 0
 183 0002 1D4C     		ldr	r4, .L19+8
ARM GAS  C:\Users\Thomas\AppData\Local\Temp\cc5AWIlU.s 			page 6


 184 0004 E068     		ldr	r0, [r4, #12]
 185 0006 238A     		ldrh	r3, [r4, #16]
 186 0008 C3EB2020 		rsb	r0, r3, r0, asr #8
 187 000c 00B2     		sxth	r0, r0
 188 000e FFF7FEFF 		bl	ADC_V_CountsTo_mVolts
 189              	.LVL5:
 190 0012 0546     		mov	r5, r0
 191              	.LVL6:
 103:.\effectSensor.c ****     int16 rawCurrent = ADC_A_CountsTo_mVolts((int16)(y_Current>>8)-Current_offset);
 192              		.loc 1 103 0
 193 0014 6068     		ldr	r0, [r4, #4]
 194 0016 638A     		ldrh	r3, [r4, #18]
 195 0018 C3EB2020 		rsb	r0, r3, r0, asr #8
 196 001c 00B2     		sxth	r0, r0
 197 001e FFF7FEFF 		bl	ADC_A_CountsTo_mVolts
 198              	.LVL7:
 199 0022 0446     		mov	r4, r0
 200              	.LVL8:
 104:.\effectSensor.c ****     
 105:.\effectSensor.c ****     /*
 106:.\effectSensor.c ****     uint32 volt = (rawVolt <= (int16)effect_sensor_OFFSET ? 0u : rawVolt - (uint32)effect_sensor_OF
 107:.\effectSensor.c ****     uint32 current = (rawCurrent <= (int16)effect_sensor_OFFSET ? 0u : rawCurrent - (uint32)effect_
 108:.\effectSensor.c ****     */
 109:.\effectSensor.c ****     uint32 volt = (rawVolt <= 0 ? 0u : rawVolt)*15.625;
 201              		.loc 1 109 0
 202 0024 002D     		cmp	r5, #0
 203 0026 0ADD     		ble	.L16
 204              		.loc 1 109 0 is_stmt 0 discriminator 1
 205 0028 2846     		mov	r0, r5
 206 002a FFF7FEFF 		bl	__aeabi_ui2d
 207              	.LVL9:
 208 002e 0022     		movs	r2, #0
 209 0030 124B     		ldr	r3, .L19+12
 210 0032 FFF7FEFF 		bl	__aeabi_dmul
 211              	.LVL10:
 212 0036 FFF7FEFF 		bl	__aeabi_d2uiz
 213              	.LVL11:
 214 003a 0546     		mov	r5, r0
 215              	.LVL12:
 216 003c 00E0     		b	.L14
 217              	.LVL13:
 218              	.L16:
 219              		.loc 1 109 0
 220 003e 0025     		movs	r5, #0
 221              	.LVL14:
 222              	.L14:
 110:.\effectSensor.c ****     uint32 current = (rawCurrent <= 0 ? 0u : rawCurrent)*5.21;
 223              		.loc 1 110 0 is_stmt 1 discriminator 4
 224 0040 002C     		cmp	r4, #0
 225 0042 0ADD     		ble	.L17
 226              		.loc 1 110 0 is_stmt 0 discriminator 1
 227 0044 2046     		mov	r0, r4
 228 0046 FFF7FEFF 		bl	__aeabi_ui2d
 229              	.LVL15:
 230 004a 09A3     		adr	r3, .L19
 231 004c D3E90023 		ldrd	r2, [r3]
 232 0050 FFF7FEFF 		bl	__aeabi_dmul
ARM GAS  C:\Users\Thomas\AppData\Local\Temp\cc5AWIlU.s 			page 7


 233              	.LVL16:
 234 0054 FFF7FEFF 		bl	__aeabi_d2uiz
 235              	.LVL17:
 236 0058 00E0     		b	.L15
 237              	.L17:
 238              		.loc 1 110 0
 239 005a 0020     		movs	r0, #0
 240              	.L15:
 241              	.LVL18:
 111:.\effectSensor.c ****     
 112:.\effectSensor.c ****     return ((uint16)(((uint64)volt*(uint64)current)/100000));
 242              		.loc 1 112 0 is_stmt 1 discriminator 4
 243 005c A5FB0001 		umull	r0, r1, r5, r0
 244              	.LVL19:
 245 0060 074A     		ldr	r2, .L19+16
 246 0062 0023     		movs	r3, #0
 247 0064 FFF7FEFF 		bl	__aeabi_uldivmod
 248              	.LVL20:
 113:.\effectSensor.c **** }
 249              		.loc 1 113 0 discriminator 4
 250 0068 80B2     		uxth	r0, r0
 251 006a 38BD     		pop	{r3, r4, r5, pc}
 252              	.LVL21:
 253              	.L20:
 254 006c AFF30080 		.align	3
 255              	.L19:
 256 0070 D7A3703D 		.word	1030792151
 257 0074 0AD71440 		.word	1075107594
 258 0078 00000000 		.word	.LANCHOR1
 259 007c 00402F40 		.word	1076838400
 260 0080 A0860100 		.word	100000
 261              		.cfi_endproc
 262              	.LFE67:
 263              		.size	effectSensor_getValue, .-effectSensor_getValue
 264 0084 AFF30080 		.section	.text.DMA_ADC_A_V_init,"ax",%progbits
 265              		.align	2
 266              		.global	DMA_ADC_A_V_init
 267              		.thumb
 268              		.thumb_func
 269              		.type	DMA_ADC_A_V_init, %function
 270              	DMA_ADC_A_V_init:
 271              	.LFB68:
 114:.\effectSensor.c **** 
 115:.\effectSensor.c **** 
 116:.\effectSensor.c **** 
 117:.\effectSensor.c **** void DMA_ADC_A_V_init()
 118:.\effectSensor.c **** {
 272              		.loc 1 118 0
 273              		.cfi_startproc
 274              		@ args = 0, pretend = 0, frame = 0
 275              		@ frame_needed = 0, uses_anonymous_args = 0
 276 0000 70B5     		push	{r4, r5, r6, lr}
 277              		.cfi_def_cfa_offset 16
 278              		.cfi_offset 4, -16
 279              		.cfi_offset 5, -12
 280              		.cfi_offset 6, -8
 281              		.cfi_offset 14, -4
ARM GAS  C:\Users\Thomas\AppData\Local\Temp\cc5AWIlU.s 			page 8


 119:.\effectSensor.c ****     
 120:.\effectSensor.c ****     
 121:.\effectSensor.c ****     /* Defines for DMA_A */
 122:.\effectSensor.c ****     #define DMA_A_BYTES_PER_BURST 2
 123:.\effectSensor.c ****     #define DMA_A_REQUEST_PER_BURST 1
 124:.\effectSensor.c ****     #define DMA_A_SRC_BASE (CYDEV_PERIPH_BASE)
 125:.\effectSensor.c ****     #define DMA_A_DST_BASE (CYDEV_SRAM_BASE)
 126:.\effectSensor.c **** 
 127:.\effectSensor.c ****     /* Variable declarations for DMA_A */
 128:.\effectSensor.c ****     /* Move these variable declarations to the top of the function */
 129:.\effectSensor.c ****     uint8 DMA_A_Chan;
 130:.\effectSensor.c ****     uint8 DMA_A_TD[1];
 131:.\effectSensor.c **** 
 132:.\effectSensor.c ****     /* DMA Configuration for DMA_A */
 133:.\effectSensor.c ****     DMA_A_Chan = DMA_A_DmaInitialize(DMA_A_BYTES_PER_BURST, DMA_A_REQUEST_PER_BURST, 
 282              		.loc 1 133 0
 283 0002 0220     		movs	r0, #2
 284 0004 0121     		movs	r1, #1
 285 0006 4FF48042 		mov	r2, #16384
 286 000a 41F6FF73 		movw	r3, #8191
 287 000e FFF7FEFF 		bl	DMA_A_DmaInitialize
 288              	.LVL22:
 289 0012 0546     		mov	r5, r0
 290              	.LVL23:
 134:.\effectSensor.c ****         HI16(DMA_A_SRC_BASE), HI16(DMA_A_DST_BASE));
 135:.\effectSensor.c ****     DMA_A_TD[0] = CyDmaTdAllocate();
 291              		.loc 1 135 0
 292 0014 FFF7FEFF 		bl	CyDmaTdAllocate
 293              	.LVL24:
 294 0018 0646     		mov	r6, r0
 136:.\effectSensor.c ****     CyDmaTdSetConfiguration(DMA_A_TD[0], 2, DMA_INVALID_TD, DMA_A__TD_TERMOUT_EN | TD_INC_DST_ADR);
 295              		.loc 1 136 0
 296 001a 0221     		movs	r1, #2
 297 001c FF22     		movs	r2, #255
 298 001e 0623     		movs	r3, #6
 299 0020 FFF7FEFF 		bl	CyDmaTdSetConfiguration
 300              	.LVL25:
 137:.\effectSensor.c ****     CyDmaTdSetAddress(DMA_A_TD[0], LO16((uint32)ADC_A_SAR_WRK0_PTR), LO16((uint32)&Current_temp));
 301              		.loc 1 137 0
 302 0024 184C     		ldr	r4, .L23
 303 0026 3046     		mov	r0, r6
 304 0028 45F6A031 		movw	r1, #23456
 305 002c A2B2     		uxth	r2, r4
 306 002e FFF7FEFF 		bl	CyDmaTdSetAddress
 307              	.LVL26:
 138:.\effectSensor.c ****     CyDmaChSetInitialTd(DMA_A_Chan, DMA_A_TD[0]);
 308              		.loc 1 138 0
 309 0032 2846     		mov	r0, r5
 310 0034 3146     		mov	r1, r6
 311 0036 FFF7FEFF 		bl	CyDmaChSetInitialTd
 312              	.LVL27:
 139:.\effectSensor.c ****     CyDmaChEnable(DMA_A_Chan, 1);
 313              		.loc 1 139 0
 314 003a 2846     		mov	r0, r5
 315 003c 0121     		movs	r1, #1
 316 003e FFF7FEFF 		bl	CyDmaChEnable
 317              	.LVL28:
ARM GAS  C:\Users\Thomas\AppData\Local\Temp\cc5AWIlU.s 			page 9


 140:.\effectSensor.c **** 
 141:.\effectSensor.c ****     
 142:.\effectSensor.c ****     // --------------------------------------------------------------------------------------------
 143:.\effectSensor.c ****     
 144:.\effectSensor.c ****     /* Defines for DMA_V */
 145:.\effectSensor.c ****     #define DMA_V_BYTES_PER_BURST 2
 146:.\effectSensor.c ****     #define DMA_V_REQUEST_PER_BURST 1
 147:.\effectSensor.c ****     #define DMA_V_SRC_BASE (CYDEV_PERIPH_BASE)
 148:.\effectSensor.c ****     #define DMA_V_DST_BASE (CYDEV_SRAM_BASE)
 149:.\effectSensor.c **** 
 150:.\effectSensor.c ****     /* Variable declarations for DMA_V */
 151:.\effectSensor.c ****     /* Move these variable declarations to the top of the function */
 152:.\effectSensor.c ****     uint8 DMA_V_Chan;
 153:.\effectSensor.c ****     uint8 DMA_V_TD[1];
 154:.\effectSensor.c **** 
 155:.\effectSensor.c ****     /* DMA Configuration for DMA_V */
 156:.\effectSensor.c ****     DMA_V_Chan = DMA_V_DmaInitialize(DMA_V_BYTES_PER_BURST, DMA_V_REQUEST_PER_BURST, 
 318              		.loc 1 156 0
 319 0042 0220     		movs	r0, #2
 320 0044 0121     		movs	r1, #1
 321 0046 4FF48042 		mov	r2, #16384
 322 004a 41F6FF73 		movw	r3, #8191
 323 004e FFF7FEFF 		bl	DMA_V_DmaInitialize
 324              	.LVL29:
 325 0052 0546     		mov	r5, r0
 326              	.LVL30:
 157:.\effectSensor.c ****         HI16(DMA_V_SRC_BASE), HI16(DMA_V_DST_BASE));
 158:.\effectSensor.c ****     DMA_V_TD[0] = CyDmaTdAllocate();
 327              		.loc 1 158 0
 328 0054 FFF7FEFF 		bl	CyDmaTdAllocate
 329              	.LVL31:
 330 0058 0646     		mov	r6, r0
 159:.\effectSensor.c ****     CyDmaTdSetConfiguration(DMA_V_TD[0], 2, DMA_INVALID_TD, DMA_V__TD_TERMOUT_EN | TD_INC_DST_ADR);
 331              		.loc 1 159 0
 332 005a 0221     		movs	r1, #2
 333 005c FF22     		movs	r2, #255
 334 005e 0623     		movs	r3, #6
 335 0060 FFF7FEFF 		bl	CyDmaTdSetConfiguration
 336              	.LVL32:
 160:.\effectSensor.c ****     CyDmaTdSetAddress(DMA_V_TD[0], LO16((uint32)ADC_V_SAR_WRK0_PTR), LO16((uint32)&Volt_temp));
 337              		.loc 1 160 0
 338 0064 04F10802 		add	r2, r4, #8
 339 0068 3046     		mov	r0, r6
 340 006a 45F6A231 		movw	r1, #23458
 341 006e 92B2     		uxth	r2, r2
 342 0070 FFF7FEFF 		bl	CyDmaTdSetAddress
 343              	.LVL33:
 161:.\effectSensor.c ****     CyDmaChSetInitialTd(DMA_V_Chan, DMA_V_TD[0]);
 344              		.loc 1 161 0
 345 0074 2846     		mov	r0, r5
 346 0076 3146     		mov	r1, r6
 347 0078 FFF7FEFF 		bl	CyDmaChSetInitialTd
 348              	.LVL34:
 162:.\effectSensor.c ****     CyDmaChEnable(DMA_V_Chan, 1);
 349              		.loc 1 162 0
 350 007c 2846     		mov	r0, r5
 351 007e 0121     		movs	r1, #1
ARM GAS  C:\Users\Thomas\AppData\Local\Temp\cc5AWIlU.s 			page 10


 352 0080 FFF7FEFF 		bl	CyDmaChEnable
 353              	.LVL35:
 354 0084 70BD     		pop	{r4, r5, r6, pc}
 355              	.LVL36:
 356              	.L24:
 357 0086 00BF     		.align	2
 358              	.L23:
 359 0088 00000000 		.word	.LANCHOR1
 360              		.cfi_endproc
 361              	.LFE68:
 362              		.size	DMA_ADC_A_V_init, .-DMA_ADC_A_V_init
 363              		.section	.text.effectSensor_init,"ax",%progbits
 364              		.align	2
 365              		.global	effectSensor_init
 366              		.thumb
 367              		.thumb_func
 368              		.type	effectSensor_init, %function
 369              	effectSensor_init:
 370              	.LFB65:
  48:.\effectSensor.c ****     Volt_offset = Volt;
 371              		.loc 1 48 0
 372              		.cfi_startproc
 373              		@ args = 0, pretend = 0, frame = 0
 374              		@ frame_needed = 0, uses_anonymous_args = 0
 375              	.LVL37:
 376 0000 08B5     		push	{r3, lr}
 377              		.cfi_def_cfa_offset 8
 378              		.cfi_offset 3, -8
 379              		.cfi_offset 14, -4
  49:.\effectSensor.c ****     Current_offset = Current;
 380              		.loc 1 49 0
 381 0002 0F4B     		ldr	r3, .L27
 382 0004 1882     		strh	r0, [r3, #16]	@ movhi
  50:.\effectSensor.c ****     
 383              		.loc 1 50 0
 384 0006 5982     		strh	r1, [r3, #18]	@ movhi
  53:.\effectSensor.c ****     PGA_2_Start();
 385              		.loc 1 53 0
 386 0008 FFF7FEFF 		bl	PGA_1_Start
 387              	.LVL38:
  54:.\effectSensor.c ****    // Opamp_1_Start();
 388              		.loc 1 54 0
 389 000c FFF7FEFF 		bl	PGA_2_Start
 390              	.LVL39:
  57:.\effectSensor.c ****     ADC_V_Start();
 391              		.loc 1 57 0
 392 0010 FFF7FEFF 		bl	ADC_A_Start
 393              	.LVL40:
  58:.\effectSensor.c ****     ADC_A_StartConvert();
 394              		.loc 1 58 0
 395 0014 FFF7FEFF 		bl	ADC_V_Start
 396              	.LVL41:
  59:.\effectSensor.c ****     ADC_V_StartConvert();
 397              		.loc 1 59 0
 398 0018 FFF7FEFF 		bl	ADC_A_StartConvert
 399              	.LVL42:
  60:.\effectSensor.c ****     
ARM GAS  C:\Users\Thomas\AppData\Local\Temp\cc5AWIlU.s 			page 11


 400              		.loc 1 60 0
 401 001c FFF7FEFF 		bl	ADC_V_StartConvert
 402              	.LVL43:
  62:.\effectSensor.c ****     isr_V_StartEx(ISR_VOLT);
 403              		.loc 1 62 0
 404 0020 0848     		ldr	r0, .L27+4
 405 0022 FFF7FEFF 		bl	isr_A_StartEx
 406              	.LVL44:
  63:.\effectSensor.c ****     
 407              		.loc 1 63 0
 408 0026 0848     		ldr	r0, .L27+8
 409 0028 FFF7FEFF 		bl	isr_V_StartEx
 410              	.LVL45:
  65:.\effectSensor.c ****     
 411              		.loc 1 65 0
 412 002c FFF7FEFF 		bl	DMA_ADC_A_V_init
 413              	.LVL46:
  68:.\effectSensor.c ****     CyDelay(100);
 414              		.loc 1 68 0
 415 0030 FFF7FEFF 		bl	VDAC8_1_Start
 416              	.LVL47:
  69:.\effectSensor.c ****     Comp_1_Start();
 417              		.loc 1 69 0
 418 0034 6420     		movs	r0, #100
 419 0036 FFF7FEFF 		bl	CyDelay
 420              	.LVL48:
  70:.\effectSensor.c **** }
 421              		.loc 1 70 0
 422 003a FFF7FEFF 		bl	Comp_1_Start
 423              	.LVL49:
 424 003e 08BD     		pop	{r3, pc}
 425              	.L28:
 426              		.align	2
 427              	.L27:
 428 0040 00000000 		.word	.LANCHOR1
 429 0044 00000000 		.word	ISR_AMP
 430 0048 00000000 		.word	ISR_VOLT
 431              		.cfi_endproc
 432              	.LFE65:
 433              		.size	effectSensor_init, .-effectSensor_init
 434              		.global	a
 435              		.global	y_Volt
 436              		.global	y_Current
 437              		.global	Current_offset
 438              		.global	Volt_offset
 439              		.global	Volt_temp
 440              		.global	Current_temp
 441              		.data
 442              		.set	.LANCHOR0,. + 0
 443              		.type	a, %object
 444              		.size	a, 1
 445              	a:
 446 0000 03       		.byte	3
 447              		.bss
 448              		.align	2
 449              		.set	.LANCHOR1,. + 0
 450              		.type	Current_temp, %object
ARM GAS  C:\Users\Thomas\AppData\Local\Temp\cc5AWIlU.s 			page 12


 451              		.size	Current_temp, 2
 452              	Current_temp:
 453 0000 0000     		.space	2
 454 0002 0000     		.space	2
 455              		.type	y_Current, %object
 456              		.size	y_Current, 4
 457              	y_Current:
 458 0004 00000000 		.space	4
 459              		.type	Volt_temp, %object
 460              		.size	Volt_temp, 2
 461              	Volt_temp:
 462 0008 0000     		.space	2
 463 000a 0000     		.space	2
 464              		.type	y_Volt, %object
 465              		.size	y_Volt, 4
 466              	y_Volt:
 467 000c 00000000 		.space	4
 468              		.type	Volt_offset, %object
 469              		.size	Volt_offset, 2
 470              	Volt_offset:
 471 0010 0000     		.space	2
 472              		.type	Current_offset, %object
 473              		.size	Current_offset, 2
 474              	Current_offset:
 475 0012 0000     		.space	2
 476              		.text
 477              	.Letext0:
 478              		.file 2 "c:\\program files (x86)\\cypress\\psoc creator\\3.3\\psoc creator\\import\\gnu\\arm\\4.9.
 479              		.file 3 "c:\\program files (x86)\\cypress\\psoc creator\\3.3\\psoc creator\\import\\gnu\\arm\\4.9.
 480              		.file 4 "Generated_Source\\PSoC5/cytypes.h"
 481              		.file 5 "Generated_Source\\PSoC5/core_cm3.h"
 482              		.file 6 "Generated_Source\\PSoC5/ADC_V.h"
 483              		.file 7 "Generated_Source\\PSoC5/ADC_A.h"
 484              		.file 8 "Generated_Source\\PSoC5/DMA_A_dma.h"
 485              		.file 9 "Generated_Source\\PSoC5/CYDMAC.H"
 486              		.file 10 "Generated_Source\\PSoC5/DMA_V_dma.h"
 487              		.file 11 "Generated_Source\\PSoC5/PGA_1.h"
 488              		.file 12 "Generated_Source\\PSoC5/PGA_2.h"
 489              		.file 13 "Generated_Source\\PSoC5/CyLib.h"
 490              		.file 14 "Generated_Source\\PSoC5/isr_A.h"
 491              		.file 15 "Generated_Source\\PSoC5/isr_V.h"
 492              		.file 16 "Generated_Source\\PSoC5/VDAC8_1.h"
 493              		.file 17 "Generated_Source\\PSoC5/Comp_1.h"