ARM GAS  C:\Users\Thomas\AppData\Local\Temp\ccawjgmD.s 			page 1


   1              		.syntax unified
   2              		.cpu cortex-m3
   3              		.fpu softvfp
   4              		.eabi_attribute 20, 1
   5              		.eabi_attribute 21, 1
   6              		.eabi_attribute 23, 3
   7              		.eabi_attribute 24, 1
   8              		.eabi_attribute 25, 1
   9              		.eabi_attribute 26, 1
  10              		.eabi_attribute 30, 1
  11              		.eabi_attribute 34, 1
  12              		.eabi_attribute 18, 4
  13              		.thumb
  14              		.file	"Logger.c"
  15              		.text
  16              	.Ltext0:
  17              		.cfi_sections	.debug_frame
  18              		.section	.text.Logger_Init,"ax",%progbits
  19              		.align	2
  20              		.global	Logger_Init
  21              		.thumb
  22              		.thumb_func
  23              		.type	Logger_Init, %function
  24              	Logger_Init:
  25              	.LFB63:
  26              		.file 1 ".\\Logger.c"
   1:.\Logger.c    **** #include <Logger.h>
   2:.\Logger.c    **** 
   3:.\Logger.c    **** char cellSeparator_ = ';';
   4:.\Logger.c    **** char lineSepartor_ = '\n';
   5:.\Logger.c    **** 
   6:.\Logger.c    **** char* logFileName_ = "log%d.txt";
   7:.\Logger.c    **** char* dataFileName_ = "data%d.csv";
   8:.\Logger.c    **** 
   9:.\Logger.c    **** int maxFileNumber_ = 20;
  10:.\Logger.c    **** int maxFileNameLength_ = 100;
  11:.\Logger.c    **** 
  12:.\Logger.c    **** FS_FILE* logFile_;
  13:.\Logger.c    **** FS_FILE* dataFile_;
  14:.\Logger.c    **** 
  15:.\Logger.c    **** void Logger_Init(void)
  16:.\Logger.c    **** {
  27              		.loc 1 16 0
  28              		.cfi_startproc
  29              		@ args = 0, pretend = 0, frame = 0
  30              		@ frame_needed = 1, uses_anonymous_args = 0
  31 0000 B0B5     		push	{r4, r5, r7, lr}
  32              		.cfi_def_cfa_offset 16
  33              		.cfi_offset 4, -16
  34              		.cfi_offset 5, -12
  35              		.cfi_offset 7, -8
  36              		.cfi_offset 14, -4
  37 0002 00AF     		add	r7, sp, #0
  38              		.cfi_def_cfa_register 7
  17:.\Logger.c    ****     int i;
  18:.\Logger.c    ****     FS_Init();
  39              		.loc 1 18 0
ARM GAS  C:\Users\Thomas\AppData\Local\Temp\ccawjgmD.s 			page 2


  40 0004 FFF7FEFF 		bl	FS_Init
  41              	.LVL0:
  19:.\Logger.c    ****     
  20:.\Logger.c    ****     char buffer[maxFileNameLength_];
  42              		.loc 1 20 0
  43 0008 1C4B     		ldr	r3, .L9
  44 000a 1B68     		ldr	r3, [r3]
  45              	.LVL1:
  46 000c 0733     		adds	r3, r3, #7
  47              	.LVL2:
  48 000e 23F00703 		bic	r3, r3, #7
  49 0012 ADEB030D 		sub	sp, sp, r3
  50 0016 6C46     		mov	r4, sp
  51              	.LVL3:
  21:.\Logger.c    ****         
  22:.\Logger.c    ****     //Open files
  23:.\Logger.c    ****     for(i = 0; i < maxFileNumber_; i++)
  52              		.loc 1 23 0
  53 0018 0025     		movs	r5, #0
  54 001a 11E0     		b	.L2
  55              	.LVL4:
  56              	.L4:
  24:.\Logger.c    ****     {
  25:.\Logger.c    ****         sprintf(buffer, logFileName_, i);
  57              		.loc 1 25 0
  58 001c 2046     		mov	r0, r4
  59 001e 174B     		ldr	r3, .L9
  60 0020 5968     		ldr	r1, [r3, #4]
  61 0022 2A46     		mov	r2, r5
  62 0024 FFF7FEFF 		bl	sprintf
  63              	.LVL5:
  26:.\Logger.c    ****         
  27:.\Logger.c    ****         if(FS_GetFileAttributes(buffer) != 0xFF) //Check if file exists
  64              		.loc 1 27 0
  65 0028 2046     		mov	r0, r4
  66 002a FFF7FEFF 		bl	FS_GetFileAttributes
  67              	.LVL6:
  68 002e FF28     		cmp	r0, #255
  69 0030 05D0     		beq	.L3
  28:.\Logger.c    ****         {
  29:.\Logger.c    ****             logFile_ = FS_FOpen(buffer, "w");
  70              		.loc 1 29 0
  71 0032 2046     		mov	r0, r4
  72 0034 1249     		ldr	r1, .L9+4
  73 0036 FFF7FEFF 		bl	FS_FOpen
  74              	.LVL7:
  75 003a 124B     		ldr	r3, .L9+8
  76 003c 1860     		str	r0, [r3]
  77              	.L3:
  23:.\Logger.c    ****     {
  78              		.loc 1 23 0 discriminator 2
  79 003e 0135     		adds	r5, r5, #1
  80              	.LVL8:
  81              	.L2:
  23:.\Logger.c    ****     {
  82              		.loc 1 23 0 is_stmt 0 discriminator 1
  83 0040 0E4B     		ldr	r3, .L9
ARM GAS  C:\Users\Thomas\AppData\Local\Temp\ccawjgmD.s 			page 3


  84 0042 9B68     		ldr	r3, [r3, #8]
  85 0044 9D42     		cmp	r5, r3
  86 0046 E9DB     		blt	.L4
  87 0048 0025     		movs	r5, #0
  88              	.LVL9:
  89 004a 11E0     		b	.L5
  90              	.LVL10:
  91              	.L7:
  30:.\Logger.c    ****         }
  31:.\Logger.c    ****     }
  32:.\Logger.c    ****     
  33:.\Logger.c    ****     
  34:.\Logger.c    ****     for(i = 0; i < maxFileNumber_; i++)
  35:.\Logger.c    ****     {
  36:.\Logger.c    ****         sprintf(buffer, dataFileName_, i);
  92              		.loc 1 36 0 is_stmt 1
  93 004c 2046     		mov	r0, r4
  94 004e 0B4B     		ldr	r3, .L9
  95 0050 D968     		ldr	r1, [r3, #12]
  96 0052 2A46     		mov	r2, r5
  97 0054 FFF7FEFF 		bl	sprintf
  98              	.LVL11:
  37:.\Logger.c    ****         
  38:.\Logger.c    ****         if(FS_GetFileAttributes(buffer) != 0xFF) //Check if file exists
  99              		.loc 1 38 0
 100 0058 2046     		mov	r0, r4
 101 005a FFF7FEFF 		bl	FS_GetFileAttributes
 102              	.LVL12:
 103 005e FF28     		cmp	r0, #255
 104 0060 05D0     		beq	.L6
  39:.\Logger.c    ****         {
  40:.\Logger.c    ****             dataFile_ = FS_FOpen(buffer, "w");
 105              		.loc 1 40 0
 106 0062 2046     		mov	r0, r4
 107 0064 0649     		ldr	r1, .L9+4
 108 0066 FFF7FEFF 		bl	FS_FOpen
 109              	.LVL13:
 110 006a 074B     		ldr	r3, .L9+12
 111 006c 1860     		str	r0, [r3]
 112              	.L6:
  34:.\Logger.c    ****     {
 113              		.loc 1 34 0 discriminator 2
 114 006e 0135     		adds	r5, r5, #1
 115              	.LVL14:
 116              	.L5:
  34:.\Logger.c    ****     {
 117              		.loc 1 34 0 is_stmt 0 discriminator 1
 118 0070 024B     		ldr	r3, .L9
 119 0072 9B68     		ldr	r3, [r3, #8]
 120 0074 9D42     		cmp	r5, r3
 121 0076 E9DB     		blt	.L7
  41:.\Logger.c    ****         }
  42:.\Logger.c    ****     }
  43:.\Logger.c    **** }
 122              		.loc 1 43 0 is_stmt 1
 123 0078 BD46     		mov	sp, r7
 124              		.cfi_def_cfa_register 13
ARM GAS  C:\Users\Thomas\AppData\Local\Temp\ccawjgmD.s 			page 4


 125              		@ sp needed
 126 007a B0BD     		pop	{r4, r5, r7, pc}
 127              	.LVL15:
 128              	.L10:
 129              		.align	2
 130              	.L9:
 131 007c 00000000 		.word	.LANCHOR0
 132 0080 00000000 		.word	.LC0
 133 0084 00000000 		.word	logFile_
 134 0088 00000000 		.word	dataFile_
 135              		.cfi_endproc
 136              	.LFE63:
 137              		.size	Logger_Init, .-Logger_Init
 138              		.section	.text.Logger_Write,"ax",%progbits
 139              		.align	2
 140              		.global	Logger_Write
 141              		.thumb
 142              		.thumb_func
 143              		.type	Logger_Write, %function
 144              	Logger_Write:
 145              	.LFB64:
  44:.\Logger.c    **** 
  45:.\Logger.c    **** void Logger_Write(char* str)
  46:.\Logger.c    **** {
 146              		.loc 1 46 0
 147              		.cfi_startproc
 148              		@ args = 0, pretend = 0, frame = 0
 149              		@ frame_needed = 0, uses_anonymous_args = 0
 150              	.LVL16:
 151 0000 38B5     		push	{r3, r4, r5, lr}
 152              		.cfi_def_cfa_offset 16
 153              		.cfi_offset 3, -16
 154              		.cfi_offset 4, -12
 155              		.cfi_offset 5, -8
 156              		.cfi_offset 14, -4
  47:.\Logger.c    ****     if(logFile_)
 157              		.loc 1 47 0
 158 0002 064B     		ldr	r3, .L14
 159 0004 1D68     		ldr	r5, [r3]
 160 0006 3DB1     		cbz	r5, .L11
 161 0008 0446     		mov	r4, r0
  48:.\Logger.c    ****     {
  49:.\Logger.c    ****         FS_Write(logFile_, str, strlen(str)); //Hope for the best, in case of any errors ignore it
 162              		.loc 1 49 0
 163 000a FFF7FEFF 		bl	strlen
 164              	.LVL17:
 165 000e 0246     		mov	r2, r0
 166 0010 2846     		mov	r0, r5
 167 0012 2146     		mov	r1, r4
 168 0014 FFF7FEFF 		bl	FS_Write
 169              	.LVL18:
 170              	.L11:
 171 0018 38BD     		pop	{r3, r4, r5, pc}
 172              	.L15:
 173 001a 00BF     		.align	2
 174              	.L14:
 175 001c 00000000 		.word	logFile_
ARM GAS  C:\Users\Thomas\AppData\Local\Temp\ccawjgmD.s 			page 5


 176              		.cfi_endproc
 177              	.LFE64:
 178              		.size	Logger_Write, .-Logger_Write
 179              		.section	.text.Logger_LogData,"ax",%progbits
 180              		.align	2
 181              		.global	Logger_LogData
 182              		.thumb
 183              		.thumb_func
 184              		.type	Logger_LogData, %function
 185              	Logger_LogData:
 186              	.LFB65:
  50:.\Logger.c    ****     }
  51:.\Logger.c    **** }
  52:.\Logger.c    **** 
  53:.\Logger.c    **** void Logger_LogData(int argc,...)
  54:.\Logger.c    **** {
 187              		.loc 1 54 0
 188              		.cfi_startproc
 189              		@ args = 4, pretend = 16, frame = 104
 190              		@ frame_needed = 0, uses_anonymous_args = 1
 191              	.LVL19:
 192 0000 0FB4     		push	{r0, r1, r2, r3}
 193              		.cfi_def_cfa_offset 16
 194              		.cfi_offset 0, -16
 195              		.cfi_offset 1, -12
 196              		.cfi_offset 2, -8
 197              		.cfi_offset 3, -4
 198 0002 F0B5     		push	{r4, r5, r6, r7, lr}
 199              		.cfi_def_cfa_offset 36
 200              		.cfi_offset 4, -36
 201              		.cfi_offset 5, -32
 202              		.cfi_offset 6, -28
 203              		.cfi_offset 7, -24
 204              		.cfi_offset 14, -20
 205 0004 9BB0     		sub	sp, sp, #108
 206              		.cfi_def_cfa_offset 144
 207 0006 209F     		ldr	r7, [sp, #128]
  55:.\Logger.c    ****     if(dataFile_)
 208              		.loc 1 55 0
 209 0008 144B     		ldr	r3, .L21
 210 000a 1B68     		ldr	r3, [r3]
 211 000c 0BB3     		cbz	r3, .L16
 212              	.LBB2:
  56:.\Logger.c    ****     {
  57:.\Logger.c    ****         va_list valist;
  58:.\Logger.c    ****         int i;
  59:.\Logger.c    ****         int count;
  60:.\Logger.c    ****         char buff[100];
  61:.\Logger.c    ****         
  62:.\Logger.c    ****         va_start(valist, argc);
 213              		.loc 1 62 0
 214 000e 21AB     		add	r3, sp, #132
 215 0010 0093     		str	r3, [sp]
 216              	.LVL20:
  63:.\Logger.c    ****         
  64:.\Logger.c    ****         for(i = 0; i < argc; i++)
 217              		.loc 1 64 0
ARM GAS  C:\Users\Thomas\AppData\Local\Temp\ccawjgmD.s 			page 6


 218 0012 0025     		movs	r5, #0
 219 0014 1BE0     		b	.L18
 220              	.LVL21:
 221              	.L19:
  65:.\Logger.c    ****         {
  66:.\Logger.c    ****             FS_Write(dataFile_, &cellSeparator_, 1); // kan vi ikke bare udføre alt dette i en?
 222              		.loc 1 66 0 discriminator 3
 223 0016 114C     		ldr	r4, .L21
 224 0018 114E     		ldr	r6, .L21+4
 225 001a 2068     		ldr	r0, [r4]
 226 001c 06F11001 		add	r1, r6, #16
 227 0020 0122     		movs	r2, #1
 228 0022 FFF7FEFF 		bl	FS_Write
 229              	.LVL22:
  67:.\Logger.c    ****             count = sprintf(buff, "%d", va_arg(valist, int));
 230              		.loc 1 67 0 discriminator 3
 231 0026 009B     		ldr	r3, [sp]
 232 0028 1A1D     		adds	r2, r3, #4
 233 002a 0092     		str	r2, [sp]
 234 002c 01A8     		add	r0, sp, #4
 235 002e 0D49     		ldr	r1, .L21+8
 236 0030 1A68     		ldr	r2, [r3]
 237 0032 FFF7FEFF 		bl	sprintf
 238              	.LVL23:
 239 0036 0246     		mov	r2, r0
 240              	.LVL24:
  68:.\Logger.c    ****             FS_Write(dataFile_, buff, count);
 241              		.loc 1 68 0 discriminator 3
 242 0038 2068     		ldr	r0, [r4]
 243              	.LVL25:
 244 003a 01A9     		add	r1, sp, #4
 245 003c FFF7FEFF 		bl	FS_Write
 246              	.LVL26:
  69:.\Logger.c    ****             FS_Write(dataFile_, &lineSepartor_, 1);
 247              		.loc 1 69 0 discriminator 3
 248 0040 2068     		ldr	r0, [r4]
 249 0042 06F11101 		add	r1, r6, #17
 250 0046 0122     		movs	r2, #1
 251 0048 FFF7FEFF 		bl	FS_Write
 252              	.LVL27:
  64:.\Logger.c    ****         {
 253              		.loc 1 64 0 discriminator 3
 254 004c 0135     		adds	r5, r5, #1
 255              	.LVL28:
 256              	.L18:
  64:.\Logger.c    ****         {
 257              		.loc 1 64 0 is_stmt 0 discriminator 1
 258 004e BD42     		cmp	r5, r7
 259 0050 E1DB     		blt	.L19
 260              	.LVL29:
 261              	.L16:
 262              	.LBE2:
  70:.\Logger.c    ****         }
  71:.\Logger.c    ****     }
  72:.\Logger.c    **** }
 263              		.loc 1 72 0 is_stmt 1
 264 0052 1BB0     		add	sp, sp, #108
ARM GAS  C:\Users\Thomas\AppData\Local\Temp\ccawjgmD.s 			page 7


 265              		.cfi_def_cfa_offset 36
 266              		@ sp needed
 267 0054 BDE8F040 		pop	{r4, r5, r6, r7, lr}
 268              		.cfi_restore 14
 269              		.cfi_restore 7
 270              		.cfi_restore 6
 271              		.cfi_restore 5
 272              		.cfi_restore 4
 273              		.cfi_def_cfa_offset 16
 274 0058 04B0     		add	sp, sp, #16
 275              		.cfi_restore 3
 276              		.cfi_restore 2
 277              		.cfi_restore 1
 278              		.cfi_restore 0
 279              		.cfi_def_cfa_offset 0
 280 005a 7047     		bx	lr
 281              	.L22:
 282              		.align	2
 283              	.L21:
 284 005c 00000000 		.word	dataFile_
 285 0060 00000000 		.word	.LANCHOR0
 286 0064 04000000 		.word	.LC1
 287              		.cfi_endproc
 288              	.LFE65:
 289              		.size	Logger_LogData, .-Logger_LogData
 290              		.section	.text.Logger_Exit,"ax",%progbits
 291              		.align	2
 292              		.global	Logger_Exit
 293              		.thumb
 294              		.thumb_func
 295              		.type	Logger_Exit, %function
 296              	Logger_Exit:
 297              	.LFB66:
  73:.\Logger.c    **** 
  74:.\Logger.c    **** void Logger_Exit(void)
  75:.\Logger.c    **** {
 298              		.loc 1 75 0
 299              		.cfi_startproc
 300              		@ args = 0, pretend = 0, frame = 0
 301              		@ frame_needed = 0, uses_anonymous_args = 0
 302 0000 08B5     		push	{r3, lr}
 303              		.cfi_def_cfa_offset 8
 304              		.cfi_offset 3, -8
 305              		.cfi_offset 14, -4
  76:.\Logger.c    ****     if(dataFile_)
 306              		.loc 1 76 0
 307 0002 064B     		ldr	r3, .L27
 308 0004 1868     		ldr	r0, [r3]
 309 0006 08B1     		cbz	r0, .L24
  77:.\Logger.c    ****     {
  78:.\Logger.c    ****         FS_FClose(dataFile_);
 310              		.loc 1 78 0
 311 0008 FFF7FEFF 		bl	FS_FClose
 312              	.LVL30:
 313              	.L24:
  79:.\Logger.c    ****     }
  80:.\Logger.c    ****     
ARM GAS  C:\Users\Thomas\AppData\Local\Temp\ccawjgmD.s 			page 8


  81:.\Logger.c    ****     if(logFile_)
 314              		.loc 1 81 0
 315 000c 044B     		ldr	r3, .L27+4
 316 000e 1B68     		ldr	r3, [r3]
 317 0010 1BB1     		cbz	r3, .L23
  82:.\Logger.c    ****     {
  83:.\Logger.c    ****         FS_FClose(dataFile_);
 318              		.loc 1 83 0
 319 0012 024B     		ldr	r3, .L27
 320 0014 1868     		ldr	r0, [r3]
 321 0016 FFF7FEFF 		bl	FS_FClose
 322              	.LVL31:
 323              	.L23:
 324 001a 08BD     		pop	{r3, pc}
 325              	.L28:
 326              		.align	2
 327              	.L27:
 328 001c 00000000 		.word	dataFile_
 329 0020 00000000 		.word	logFile_
 330              		.cfi_endproc
 331              	.LFE66:
 332              		.size	Logger_Exit, .-Logger_Exit
 333              		.comm	dataFile_,4,4
 334              		.comm	logFile_,4,4
 335              		.global	maxFileNameLength_
 336              		.global	maxFileNumber_
 337              		.global	dataFileName_
 338              		.global	logFileName_
 339              		.global	lineSepartor_
 340              		.global	cellSeparator_
 341              		.data
 342              		.align	2
 343              		.set	.LANCHOR0,. + 0
 344              		.type	maxFileNameLength_, %object
 345              		.size	maxFileNameLength_, 4
 346              	maxFileNameLength_:
 347 0000 64000000 		.word	100
 348              		.type	logFileName_, %object
 349              		.size	logFileName_, 4
 350              	logFileName_:
 351 0004 14000000 		.word	.LC3
 352              		.type	maxFileNumber_, %object
 353              		.size	maxFileNumber_, 4
 354              	maxFileNumber_:
 355 0008 14000000 		.word	20
 356              		.type	dataFileName_, %object
 357              		.size	dataFileName_, 4
 358              	dataFileName_:
 359 000c 08000000 		.word	.LC2
 360              		.type	cellSeparator_, %object
 361              		.size	cellSeparator_, 1
 362              	cellSeparator_:
 363 0010 3B       		.byte	59
 364              		.type	lineSepartor_, %object
 365              		.size	lineSepartor_, 1
 366              	lineSepartor_:
 367 0011 0A       		.byte	10
ARM GAS  C:\Users\Thomas\AppData\Local\Temp\ccawjgmD.s 			page 9


 368 0012 0000     		.section	.rodata.str1.4,"aMS",%progbits,1
 369              		.align	2
 370              	.LC0:
 371 0000 7700     		.ascii	"w\000"
 372 0002 0000     		.space	2
 373              	.LC1:
 374 0004 256400   		.ascii	"%d\000"
 375 0007 00       		.space	1
 376              	.LC2:
 377 0008 64617461 		.ascii	"data%d.csv\000"
 377      25642E63 
 377      737600
 378 0013 00       		.space	1
 379              	.LC3:
 380 0014 6C6F6725 		.ascii	"log%d.txt\000"
 380      642E7478 
 380      7400
 381 001e 0000     		.text
 382              	.Letext0:
 383              		.file 2 "c:\\program files (x86)\\cypress\\psoc creator\\3.3\\psoc creator\\import\\gnu\\arm\\4.9.
 384              		.file 3 "c:\\program files (x86)\\cypress\\psoc creator\\3.3\\psoc creator\\import\\gnu\\arm\\4.9.
 385              		.file 4 "c:\\program files (x86)\\cypress\\psoc creator\\3.3\\psoc creator\\import\\gnu\\arm\\4.9.
 386              		.file 5 ".\\Libs\\emFile_V322c\\Code\\Include\\PSoC5/FS_Types.h"
 387              		.file 6 "c:\\program files (x86)\\cypress\\psoc creator\\3.3\\psoc creator\\import\\gnu\\arm\\4.9.
 388              		.file 7 "Generated_Source\\PSoC5/core_cm3.h"
 389              		.file 8 "c:\\program files (x86)\\cypress\\psoc creator\\3.3\\psoc creator\\import\\gnu\\arm\\4.9.
 390              		.file 9 ".\\Libs\\emFile_V322c\\Code\\Include\\PSoC5/FS.h"
 391              		.file 10 "c:\\program files (x86)\\cypress\\psoc creator\\3.3\\psoc creator\\import\\gnu\\arm\\4.9
 392              		.file 11 "<built-in>"