ARM GAS  C:\Users\Thomas\AppData\Local\Temp\ccfjcERj.s 			page 1


   1              		.syntax unified
   2              		.cpu cortex-m3
   3              		.fpu softvfp
   4              		.eabi_attribute 20, 1
   5              		.eabi_attribute 21, 1
   6              		.eabi_attribute 23, 3
   7              		.eabi_attribute 24, 1
   8              		.eabi_attribute 25, 1
   9              		.eabi_attribute 26, 1
  10              		.eabi_attribute 30, 1
  11              		.eabi_attribute 34, 1
  12              		.eabi_attribute 18, 4
  13              		.thumb
  14              		.file	"MotorController.c"
  15              		.text
  16              	.Ltext0:
  17              		.cfi_sections	.debug_frame
  18              		.section	.text.MOTOR_tick,"ax",%progbits
  19              		.align	2
  20              		.global	MOTOR_tick
  21              		.thumb
  22              		.thumb_func
  23              		.type	MOTOR_tick, %function
  24              	MOTOR_tick:
  25              	.LFB63:
  26              		.file 1 ".\\MotorController.c"
   1:.\MotorController.c **** /* ========================================
   2:.\MotorController.c ****  *
   3:.\MotorController.c ****  * Copyright YOUR COMPANY, THE YEAR
   4:.\MotorController.c ****  * All Rights Reserved
   5:.\MotorController.c ****  * UNPUBLISHED, LICENSED SOFTWARE.
   6:.\MotorController.c ****  *
   7:.\MotorController.c ****  * CONFIDENTIAL AND PROPRIETARY INFORMATION
   8:.\MotorController.c ****  * WHICH IS THE PROPERTY OF your company.
   9:.\MotorController.c ****  *
  10:.\MotorController.c ****  * ========================================
  11:.\MotorController.c **** */
  12:.\MotorController.c **** #include "MotorController.h"
  13:.\MotorController.c **** 
  14:.\MotorController.c **** /*
  15:.\MotorController.c **** const uint8 * speed_ = NULL;
  16:.\MotorController.c **** const uint16 * rpm_ = NULL;
  17:.\MotorController.c **** const uint16 * volt_ = NULL;
  18:.\MotorController.c **** const uint16 * current_ = NULL;
  19:.\MotorController.c **** */
  20:.\MotorController.c **** uint16 Threshold_ = 57; // i RPM
  21:.\MotorController.c **** enum STATES {TEST, ACC, CAB, STOP}; //CAB = cost and burn
  22:.\MotorController.c **** 
  23:.\MotorController.c **** enum STATES state = STOP;
  24:.\MotorController.c **** 
  25:.\MotorController.c **** CY_ISR_PROTO(MOTOR_tick);
  26:.\MotorController.c **** CY_ISR_PROTO(OVERCURRENT);
  27:.\MotorController.c **** 
  28:.\MotorController.c **** CY_ISR(MOTOR_tick)
  29:.\MotorController.c **** {
  27              		.loc 1 29 0
  28              		.cfi_startproc
ARM GAS  C:\Users\Thomas\AppData\Local\Temp\ccfjcERj.s 			page 2


  29              		@ args = 0, pretend = 0, frame = 0
  30              		@ frame_needed = 0, uses_anonymous_args = 0
  31 0000 70B5     		push	{r4, r5, r6, lr}
  32              		.cfi_def_cfa_offset 16
  33              		.cfi_offset 4, -16
  34              		.cfi_offset 5, -12
  35              		.cfi_offset 6, -8
  36              		.cfi_offset 14, -4
  30:.\MotorController.c **** 
  31:.\MotorController.c ****     uint16 output;
  32:.\MotorController.c ****     uint16 power = effectSensor_getValue();
  37              		.loc 1 32 0
  38 0002 FFF7FEFF 		bl	effectSensor_getValue
  39              	.LVL0:
  40 0006 0646     		mov	r6, r0
  41              	.LVL1:
  33:.\MotorController.c ****     uint16 rpm = RPMSensor_getValue();
  42              		.loc 1 33 0
  43 0008 FFF7FEFF 		bl	RPMSensor_getValue
  44              	.LVL2:
  45 000c 0446     		mov	r4, r0
  46              	.LVL3:
  34:.\MotorController.c ****     uint16 WantedSpeed = Pedal_getValue();
  47              		.loc 1 34 0
  48 000e FFF7FEFF 		bl	Pedal_getValue
  49              	.LVL4:
  50 0012 0546     		mov	r5, r0
  51              	.LVL5:
  35:.\MotorController.c ****     uint16 Speed_LUT = LUT_speed(WantedSpeed, rpm, power);
  52              		.loc 1 35 0
  53 0014 2146     		mov	r1, r4
  54 0016 3246     		mov	r2, r6
  55 0018 FFF7FEFF 		bl	LUT_speed
  56              	.LVL6:
  36:.\MotorController.c ****     
  37:.\MotorController.c ****     switch(state){
  57              		.loc 1 37 0
  58 001c 0F4B     		ldr	r3, .L7
  59 001e 1B78     		ldrb	r3, [r3]	@ zero_extendqisi2
  60 0020 012B     		cmp	r3, #1
  61 0022 03D0     		beq	.L3
  62 0024 CBB1     		cbz	r3, .L1
  63 0026 022B     		cmp	r3, #2
  64 0028 0CD0     		beq	.L5
  65 002a 13E0     		b	.L2
  66              	.L3:
  38:.\MotorController.c ****     case TEST:
  39:.\MotorController.c ****         //til test og andet.
  40:.\MotorController.c ****         break;
  41:.\MotorController.c ****     case ACC:
  42:.\MotorController.c ****         
  43:.\MotorController.c ****         output = PID(Speed_LUT, rpm);
  67              		.loc 1 43 0
  68 002c 2146     		mov	r1, r4
  69 002e FFF7FEFF 		bl	PID
  70              	.LVL7:
  44:.\MotorController.c ****         PWM_motor_WriteCompare((uint8)output);
ARM GAS  C:\Users\Thomas\AppData\Local\Temp\ccfjcERj.s 			page 3


  71              		.loc 1 44 0
  72 0032 C0B2     		uxtb	r0, r0
  73              	.LVL8:
  74 0034 FFF7FEFF 		bl	PWM_motor_WriteCompare
  75              	.LVL9:
  45:.\MotorController.c ****         if(rpm >= WantedSpeed) state = CAB;
  76              		.loc 1 45 0
  77 0038 AC42     		cmp	r4, r5
  78 003a 0ED3     		bcc	.L1
  79              		.loc 1 45 0 is_stmt 0 discriminator 1
  80 003c 0222     		movs	r2, #2
  81 003e 074B     		ldr	r3, .L7
  82 0040 1A70     		strb	r2, [r3]
  83 0042 70BD     		pop	{r4, r5, r6, pc}
  84              	.LVL10:
  85              	.L5:
  46:.\MotorController.c ****         break;
  47:.\MotorController.c ****     case CAB:
  48:.\MotorController.c ****         if(rpm <= (WantedSpeed - Threshold_)) state = ACC;
  86              		.loc 1 48 0 is_stmt 1
  87 0044 054B     		ldr	r3, .L7
  88 0046 5B88     		ldrh	r3, [r3, #2]
  89 0048 ED1A     		subs	r5, r5, r3
  90              	.LVL11:
  91 004a AC42     		cmp	r4, r5
  92 004c 02DC     		bgt	.L2
  93              		.loc 1 48 0 is_stmt 0 discriminator 1
  94 004e 0122     		movs	r2, #1
  95 0050 024B     		ldr	r3, .L7
  96 0052 1A70     		strb	r2, [r3]
  97              	.L2:
  49:.\MotorController.c ****     case STOP:
  50:.\MotorController.c ****     default:
  51:.\MotorController.c ****         PWM_motor_WriteCompare(0x00);
  98              		.loc 1 51 0 is_stmt 1
  99 0054 0020     		movs	r0, #0
 100              	.LVL12:
 101 0056 FFF7FEFF 		bl	PWM_motor_WriteCompare
 102              	.LVL13:
 103              	.L1:
 104 005a 70BD     		pop	{r4, r5, r6, pc}
 105              	.LVL14:
 106              	.L8:
 107              		.align	2
 108              	.L7:
 109 005c 00000000 		.word	.LANCHOR0
 110              		.cfi_endproc
 111              	.LFE63:
 112              		.size	MOTOR_tick, .-MOTOR_tick
 113              		.section	.text.MC_start,"ax",%progbits
 114              		.align	2
 115              		.global	MC_start
 116              		.thumb
 117              		.thumb_func
 118              		.type	MC_start, %function
 119              	MC_start:
 120              	.LFB65:
ARM GAS  C:\Users\Thomas\AppData\Local\Temp\ccfjcERj.s 			page 4


  52:.\MotorController.c ****         break;
  53:.\MotorController.c ****     }
  54:.\MotorController.c **** 
  55:.\MotorController.c **** }
  56:.\MotorController.c **** 
  57:.\MotorController.c **** 
  58:.\MotorController.c **** CY_ISR(OVERCURRENT) //tjekker om det er nødvendigt at lukke for systemet eller ej.
  59:.\MotorController.c **** {
  60:.\MotorController.c ****     CyGlobalIntDisable;
  61:.\MotorController.c ****     MC_stop();
  62:.\MotorController.c ****     PWM_motor_WriteCompare(0x00);
  63:.\MotorController.c ****     CyDelay(1000);
  64:.\MotorController.c ****     PWM_motor_WriteCompare(0x01);
  65:.\MotorController.c ****     Control_Reg_motor_reset_Write(1u);
  66:.\MotorController.c ****     CyDelay(100);
  67:.\MotorController.c ****     if((Status_Reg_1_Read()&1u) == 1u)
  68:.\MotorController.c ****     {
  69:.\MotorController.c ****         PWM_motor_WriteCompare(0x00);
  70:.\MotorController.c ****         while(1); // der er for stor belastning på motoren og MCU går i lukke tilstand og kræver
  71:.\MotorController.c ****     }
  72:.\MotorController.c ****     
  73:.\MotorController.c ****     
  74:.\MotorController.c ****     MC_start(); //Det er vurderet at det er iorden at forsætte og MCU går tilbage til normal tils
  75:.\MotorController.c ****     CyGlobalIntEnable;
  76:.\MotorController.c **** }
  77:.\MotorController.c **** 
  78:.\MotorController.c **** void MC_start()
  79:.\MotorController.c **** {
 121              		.loc 1 79 0
 122              		.cfi_startproc
 123              		@ args = 0, pretend = 0, frame = 0
 124              		@ frame_needed = 0, uses_anonymous_args = 0
 125              		@ link register save eliminated.
  80:.\MotorController.c ****     state = ACC;
 126              		.loc 1 80 0
 127 0000 0122     		movs	r2, #1
 128 0002 014B     		ldr	r3, .L10
 129 0004 1A70     		strb	r2, [r3]
 130 0006 7047     		bx	lr
 131              	.L11:
 132              		.align	2
 133              	.L10:
 134 0008 00000000 		.word	.LANCHOR0
 135              		.cfi_endproc
 136              	.LFE65:
 137              		.size	MC_start, .-MC_start
 138              		.section	.text.MC_stop,"ax",%progbits
 139              		.align	2
 140              		.global	MC_stop
 141              		.thumb
 142              		.thumb_func
 143              		.type	MC_stop, %function
 144              	MC_stop:
 145              	.LFB66:
  81:.\MotorController.c **** }
  82:.\MotorController.c **** 
  83:.\MotorController.c **** void MC_stop()
ARM GAS  C:\Users\Thomas\AppData\Local\Temp\ccfjcERj.s 			page 5


  84:.\MotorController.c **** {
 146              		.loc 1 84 0
 147              		.cfi_startproc
 148              		@ args = 0, pretend = 0, frame = 0
 149              		@ frame_needed = 0, uses_anonymous_args = 0
 150              		@ link register save eliminated.
  85:.\MotorController.c ****     state = STOP;
 151              		.loc 1 85 0
 152 0000 0322     		movs	r2, #3
 153 0002 014B     		ldr	r3, .L13
 154 0004 1A70     		strb	r2, [r3]
 155 0006 7047     		bx	lr
 156              	.L14:
 157              		.align	2
 158              	.L13:
 159 0008 00000000 		.word	.LANCHOR0
 160              		.cfi_endproc
 161              	.LFE66:
 162              		.size	MC_stop, .-MC_stop
 163              		.section	.text.OVERCURRENT,"ax",%progbits
 164              		.align	2
 165              		.global	OVERCURRENT
 166              		.thumb
 167              		.thumb_func
 168              		.type	OVERCURRENT, %function
 169              	OVERCURRENT:
 170              	.LFB64:
  59:.\MotorController.c ****     CyGlobalIntDisable;
 171              		.loc 1 59 0
 172              		.cfi_startproc
 173              		@ args = 0, pretend = 0, frame = 0
 174              		@ frame_needed = 0, uses_anonymous_args = 0
 175 0000 08B5     		push	{r3, lr}
 176              		.cfi_def_cfa_offset 8
 177              		.cfi_offset 3, -8
 178              		.cfi_offset 14, -4
  60:.\MotorController.c ****     MC_stop();
 179              		.loc 1 60 0
 180              	@ 60 ".\MotorController.c" 1
 181 0002 72B6     		CPSID   i
 182              	@ 0 "" 2
  61:.\MotorController.c ****     PWM_motor_WriteCompare(0x00);
 183              		.loc 1 61 0
 184              		.thumb
 185 0004 FFF7FEFF 		bl	MC_stop
 186              	.LVL15:
  62:.\MotorController.c ****     CyDelay(1000);
 187              		.loc 1 62 0
 188 0008 0020     		movs	r0, #0
 189 000a FFF7FEFF 		bl	PWM_motor_WriteCompare
 190              	.LVL16:
  63:.\MotorController.c ****     PWM_motor_WriteCompare(0x01);
 191              		.loc 1 63 0
 192 000e 4FF47A70 		mov	r0, #1000
 193 0012 FFF7FEFF 		bl	CyDelay
 194              	.LVL17:
  64:.\MotorController.c ****     Control_Reg_motor_reset_Write(1u);
ARM GAS  C:\Users\Thomas\AppData\Local\Temp\ccfjcERj.s 			page 6


 195              		.loc 1 64 0
 196 0016 0120     		movs	r0, #1
 197 0018 FFF7FEFF 		bl	PWM_motor_WriteCompare
 198              	.LVL18:
  65:.\MotorController.c ****     CyDelay(100);
 199              		.loc 1 65 0
 200 001c 0120     		movs	r0, #1
 201 001e FFF7FEFF 		bl	Control_Reg_motor_reset_Write
 202              	.LVL19:
  66:.\MotorController.c ****     if((Status_Reg_1_Read()&1u) == 1u)
 203              		.loc 1 66 0
 204 0022 6420     		movs	r0, #100
 205 0024 FFF7FEFF 		bl	CyDelay
 206              	.LVL20:
  67:.\MotorController.c ****     {
 207              		.loc 1 67 0
 208 0028 FFF7FEFF 		bl	Status_Reg_1_Read
 209              	.LVL21:
 210 002c 10F0010F 		tst	r0, #1
 211 0030 03D0     		beq	.L16
  69:.\MotorController.c ****         while(1); // der er for stor belastning på motoren og MCU går i lukke tilstand og kræver
 212              		.loc 1 69 0
 213 0032 0020     		movs	r0, #0
 214 0034 FFF7FEFF 		bl	PWM_motor_WriteCompare
 215              	.LVL22:
 216              	.L17:
  70:.\MotorController.c ****     }
 217              		.loc 1 70 0 discriminator 1
 218 0038 FEE7     		b	.L17
 219              	.L16:
  74:.\MotorController.c ****     CyGlobalIntEnable;
 220              		.loc 1 74 0
 221 003a FFF7FEFF 		bl	MC_start
 222              	.LVL23:
  75:.\MotorController.c **** }
 223              		.loc 1 75 0
 224              	@ 75 ".\MotorController.c" 1
 225 003e 62B6     		CPSIE   i
 226              	@ 0 "" 2
 227              		.thumb
 228 0040 08BD     		pop	{r3, pc}
 229              		.cfi_endproc
 230              	.LFE64:
 231              		.size	OVERCURRENT, .-OVERCURRENT
 232 0042 00BF     		.section	.text.MC_init,"ax",%progbits
 233              		.align	2
 234              		.global	MC_init
 235              		.thumb
 236              		.thumb_func
 237              		.type	MC_init, %function
 238              	MC_init:
 239              	.LFB67:
  86:.\MotorController.c **** }
  87:.\MotorController.c **** 
  88:.\MotorController.c **** void MC_init(const struct PIDparameter * pidval)
  89:.\MotorController.c **** {
 240              		.loc 1 89 0
ARM GAS  C:\Users\Thomas\AppData\Local\Temp\ccfjcERj.s 			page 7


 241              		.cfi_startproc
 242              		@ args = 0, pretend = 0, frame = 0
 243              		@ frame_needed = 0, uses_anonymous_args = 0
 244              	.LVL24:
 245 0000 10B5     		push	{r4, lr}
 246              		.cfi_def_cfa_offset 8
 247              		.cfi_offset 4, -8
 248              		.cfi_offset 14, -4
 249 0002 0446     		mov	r4, r0
  90:.\MotorController.c ****     //initialiser PID regulatoren
  91:.\MotorController.c ****     PID_init();
 250              		.loc 1 91 0
 251 0004 FFF7FEFF 		bl	PID_init
 252              	.LVL25:
  92:.\MotorController.c ****     setPID(pidval);
 253              		.loc 1 92 0
 254 0008 2046     		mov	r0, r4
 255 000a FFF7FEFF 		bl	setPID
 256              	.LVL26:
  93:.\MotorController.c ****     
  94:.\MotorController.c ****     //opsætter interrupt rutine til tilfælde af overbelastning.
  95:.\MotorController.c ****     isr_overCurrent_StartEx(OVERCURRENT);
 257              		.loc 1 95 0
 258 000e 0648     		ldr	r0, .L21
 259 0010 FFF7FEFF 		bl	isr_overCurrent_StartEx
 260              	.LVL27:
  96:.\MotorController.c ****     
  97:.\MotorController.c ****     //Starter de hardware blokke der skal bruges af MotorController.
  98:.\MotorController.c ****     Clock_motor_Start();
 261              		.loc 1 98 0
 262 0014 FFF7FEFF 		bl	Clock_motor_Start
 263              	.LVL28:
  99:.\MotorController.c ****     PWM_motor_Start();
 264              		.loc 1 99 0
 265 0018 FFF7FEFF 		bl	PWM_motor_Start
 266              	.LVL29:
 100:.\MotorController.c ****     
 101:.\MotorController.c ****     //Sætter bilen i start tilstand og opsætter interrupt rutine til MotorControlleren.
 102:.\MotorController.c ****     MC_start();
 267              		.loc 1 102 0
 268 001c FFF7FEFF 		bl	MC_start
 269              	.LVL30:
 103:.\MotorController.c ****     isr_motor_StartEx(MOTOR_tick);
 270              		.loc 1 103 0
 271 0020 0248     		ldr	r0, .L21+4
 272 0022 FFF7FEFF 		bl	isr_motor_StartEx
 273              	.LVL31:
 274 0026 10BD     		pop	{r4, pc}
 275              	.LVL32:
 276              	.L22:
 277              		.align	2
 278              	.L21:
 279 0028 00000000 		.word	OVERCURRENT
 280 002c 00000000 		.word	MOTOR_tick
 281              		.cfi_endproc
 282              	.LFE67:
 283              		.size	MC_init, .-MC_init
ARM GAS  C:\Users\Thomas\AppData\Local\Temp\ccfjcERj.s 			page 8


 284              		.section	.text.MC_ChangePID,"ax",%progbits
 285              		.align	2
 286              		.global	MC_ChangePID
 287              		.thumb
 288              		.thumb_func
 289              		.type	MC_ChangePID, %function
 290              	MC_ChangePID:
 291              	.LFB68:
 104:.\MotorController.c **** }
 105:.\MotorController.c **** 
 106:.\MotorController.c **** void MC_ChangePID(const struct PIDparameter * pidval)
 107:.\MotorController.c **** {
 292              		.loc 1 107 0
 293              		.cfi_startproc
 294              		@ args = 0, pretend = 0, frame = 0
 295              		@ frame_needed = 0, uses_anonymous_args = 0
 296              	.LVL33:
 297 0000 08B5     		push	{r3, lr}
 298              		.cfi_def_cfa_offset 8
 299              		.cfi_offset 3, -8
 300              		.cfi_offset 14, -4
 108:.\MotorController.c ****     setPID(pidval);
 301              		.loc 1 108 0
 302 0002 FFF7FEFF 		bl	setPID
 303              	.LVL34:
 304 0006 08BD     		pop	{r3, pc}
 305              		.cfi_endproc
 306              	.LFE68:
 307              		.size	MC_ChangePID, .-MC_ChangePID
 308              		.section	.text.MC_setThreshold,"ax",%progbits
 309              		.align	2
 310              		.global	MC_setThreshold
 311              		.thumb
 312              		.thumb_func
 313              		.type	MC_setThreshold, %function
 314              	MC_setThreshold:
 315              	.LFB69:
 109:.\MotorController.c **** }
 110:.\MotorController.c **** 
 111:.\MotorController.c **** void MC_setThreshold(uint16 Threshold)
 112:.\MotorController.c **** {
 316              		.loc 1 112 0
 317              		.cfi_startproc
 318              		@ args = 0, pretend = 0, frame = 0
 319              		@ frame_needed = 0, uses_anonymous_args = 0
 320              		@ link register save eliminated.
 321              	.LVL35:
 113:.\MotorController.c ****        Threshold_ = Threshold;
 322              		.loc 1 113 0
 323 0000 014B     		ldr	r3, .L26
 324 0002 5880     		strh	r0, [r3, #2]	@ movhi
 325 0004 7047     		bx	lr
 326              	.L27:
 327 0006 00BF     		.align	2
 328              	.L26:
 329 0008 00000000 		.word	.LANCHOR0
 330              		.cfi_endproc
ARM GAS  C:\Users\Thomas\AppData\Local\Temp\ccfjcERj.s 			page 9


 331              	.LFE69:
 332              		.size	MC_setThreshold, .-MC_setThreshold
 333              		.global	state
 334              		.global	Threshold_
 335              		.data
 336              		.align	1
 337              		.set	.LANCHOR0,. + 0
 338              		.type	state, %object
 339              		.size	state, 1
 340              	state:
 341 0000 03       		.byte	3
 342 0001 00       		.space	1
 343              		.type	Threshold_, %object
 344              		.size	Threshold_, 2
 345              	Threshold_:
 346 0002 3900     		.short	57
 347              		.text
 348              	.Letext0:
 349              		.file 2 "c:\\program files (x86)\\cypress\\psoc creator\\3.3\\psoc creator\\import\\gnu\\arm\\4.9.
 350              		.file 3 "c:\\program files (x86)\\cypress\\psoc creator\\3.3\\psoc creator\\import\\gnu\\arm\\4.9.
 351              		.file 4 "Generated_Source\\PSoC5/cytypes.h"
 352              		.file 5 ".\\PID.h"
 353              		.file 6 "Generated_Source\\PSoC5/core_cm3.h"
 354              		.file 7 ".\\effectSensor.h"
 355              		.file 8 ".\\RPMSensor.h"
 356              		.file 9 ".\\Pedal.h"
 357              		.file 10 "Generated_Source\\PSoC5/PWM_motor.h"
 358              		.file 11 "Generated_Source\\PSoC5/CyLib.h"
 359              		.file 12 "Generated_Source\\PSoC5/Control_Reg_motor_reset.h"
 360              		.file 13 "Generated_Source\\PSoC5/isr_overCurrent.h"
 361              		.file 14 "Generated_Source\\PSoC5/Clock_motor.h"
 362              		.file 15 "Generated_Source\\PSoC5/isr_motor.h"
 363              		.file 16 ".\\Motor_lookupTable.h"
 364              		.file 17 "Generated_Source\\PSoC5/Status_Reg_1.h"