ARM GAS  C:\Users\Thomas\AppData\Local\Temp\ccHZTi2e.s 			page 1


   1              		.syntax unified
   2              		.cpu cortex-m3
   3              		.fpu softvfp
   4              		.eabi_attribute 20, 1
   5              		.eabi_attribute 21, 1
   6              		.eabi_attribute 23, 3
   7              		.eabi_attribute 24, 1
   8              		.eabi_attribute 25, 1
   9              		.eabi_attribute 26, 1
  10              		.eabi_attribute 30, 1
  11              		.eabi_attribute 34, 1
  12              		.eabi_attribute 18, 4
  13              		.thumb
  14              		.file	"Pedal.c"
  15              		.text
  16              	.Ltext0:
  17              		.cfi_sections	.debug_frame
  18              		.section	.text.Pedal_init,"ax",%progbits
  19              		.align	2
  20              		.global	Pedal_init
  21              		.thumb
  22              		.thumb_func
  23              		.type	Pedal_init, %function
  24              	Pedal_init:
  25              	.LFB63:
  26              		.file 1 ".\\Pedal.c"
   1:.\Pedal.c     **** /* ========================================
   2:.\Pedal.c     ****  *
   3:.\Pedal.c     ****  * Copyright YOUR COMPANY, THE YEAR
   4:.\Pedal.c     ****  * All Rights Reserved
   5:.\Pedal.c     ****  * UNPUBLISHED, LICENSED SOFTWARE.
   6:.\Pedal.c     ****  *
   7:.\Pedal.c     ****  * CONFIDENTIAL AND PROPRIETARY INFORMATION
   8:.\Pedal.c     ****  * WHICH IS THE PROPERTY OF your company.
   9:.\Pedal.c     ****  *
  10:.\Pedal.c     ****  * ========================================
  11:.\Pedal.c     **** */
  12:.\Pedal.c     **** #include "Pedal.h"
  13:.\Pedal.c     **** 
  14:.\Pedal.c     **** uint16 set_ = 0;
  15:.\Pedal.c     **** 
  16:.\Pedal.c     **** void Pedal_init()
  17:.\Pedal.c     **** {
  27              		.loc 1 17 0
  28              		.cfi_startproc
  29              		@ args = 0, pretend = 0, frame = 0
  30              		@ frame_needed = 0, uses_anonymous_args = 0
  31              		@ link register save eliminated.
  32 0000 7047     		bx	lr
  33              		.cfi_endproc
  34              	.LFE63:
  35              		.size	Pedal_init, .-Pedal_init
  36 0002 00BF     		.section	.text.Pedal_getValue,"ax",%progbits
  37              		.align	2
  38              		.global	Pedal_getValue
  39              		.thumb
  40              		.thumb_func
ARM GAS  C:\Users\Thomas\AppData\Local\Temp\ccHZTi2e.s 			page 2


  41              		.type	Pedal_getValue, %function
  42              	Pedal_getValue:
  43              	.LFB64:
  18:.\Pedal.c     ****     //return &set_;
  19:.\Pedal.c     **** }
  20:.\Pedal.c     **** 
  21:.\Pedal.c     **** uint16 Pedal_getValue()
  22:.\Pedal.c     **** {
  44              		.loc 1 22 0
  45              		.cfi_startproc
  46              		@ args = 0, pretend = 0, frame = 0
  47              		@ frame_needed = 0, uses_anonymous_args = 0
  48              		@ link register save eliminated.
  23:.\Pedal.c     ****     return set_;
  24:.\Pedal.c     **** }
  49              		.loc 1 24 0
  50 0000 014B     		ldr	r3, .L3
  51 0002 1888     		ldrh	r0, [r3]
  52 0004 7047     		bx	lr
  53              	.L4:
  54 0006 00BF     		.align	2
  55              	.L3:
  56 0008 00000000 		.word	.LANCHOR0
  57              		.cfi_endproc
  58              	.LFE64:
  59              		.size	Pedal_getValue, .-Pedal_getValue
  60              		.section	.text.Pedal_update,"ax",%progbits
  61              		.align	2
  62              		.global	Pedal_update
  63              		.thumb
  64              		.thumb_func
  65              		.type	Pedal_update, %function
  66              	Pedal_update:
  67              	.LFB65:
  25:.\Pedal.c     **** 
  26:.\Pedal.c     **** void Pedal_update()
  27:.\Pedal.c     **** {
  68              		.loc 1 27 0
  69              		.cfi_startproc
  70              		@ args = 0, pretend = 0, frame = 0
  71              		@ frame_needed = 0, uses_anonymous_args = 0
  72 0000 08B5     		push	{r3, lr}
  73              		.cfi_def_cfa_offset 8
  74              		.cfi_offset 3, -8
  75              		.cfi_offset 14, -4
  28:.\Pedal.c     ****     set_ = (uint16)275u * (uint16)(Status_Reg_1_Read()&0b1);
  76              		.loc 1 28 0
  77 0002 FFF7FEFF 		bl	Status_Reg_1_Read
  78              	.LVL0:
  79 0006 00F00100 		and	r0, r0, #1
  80 000a C300     		lsls	r3, r0, #3
  81 000c 1B1A     		subs	r3, r3, r0
  82 000e C0EBC300 		rsb	r0, r0, r3, lsl #3
  83 0012 00EB8000 		add	r0, r0, r0, lsl #2
  84 0016 014B     		ldr	r3, .L7
  85 0018 1880     		strh	r0, [r3]	@ movhi
  86 001a 08BD     		pop	{r3, pc}
ARM GAS  C:\Users\Thomas\AppData\Local\Temp\ccHZTi2e.s 			page 3


  87              	.L8:
  88              		.align	2
  89              	.L7:
  90 001c 00000000 		.word	.LANCHOR0
  91              		.cfi_endproc
  92              	.LFE65:
  93              		.size	Pedal_update, .-Pedal_update
  94              		.global	set_
  95              		.bss
  96              		.align	1
  97              		.set	.LANCHOR0,. + 0
  98              		.type	set_, %object
  99              		.size	set_, 2
 100              	set_:
 101 0000 0000     		.space	2
 102              		.text
 103              	.Letext0:
 104              		.file 2 "c:\\program files (x86)\\cypress\\psoc creator\\3.3\\psoc creator\\import\\gnu\\arm\\4.9.
 105              		.file 3 "c:\\program files (x86)\\cypress\\psoc creator\\3.3\\psoc creator\\import\\gnu\\arm\\4.9.
 106              		.file 4 "Generated_Source\\PSoC5/cytypes.h"
 107              		.file 5 "Generated_Source\\PSoC5/core_cm3.h"
 108              		.file 6 "Generated_Source\\PSoC5/Status_Reg_1.h"