ARM GAS  C:\Users\Thomas\AppData\Local\Temp\ccr7ze9F.s 			page 1


   1              		.syntax unified
   2              		.cpu cortex-m3
   3              		.fpu softvfp
   4              		.eabi_attribute 20, 1
   5              		.eabi_attribute 21, 1
   6              		.eabi_attribute 23, 3
   7              		.eabi_attribute 24, 1
   8              		.eabi_attribute 25, 1
   9              		.eabi_attribute 26, 1
  10              		.eabi_attribute 30, 1
  11              		.eabi_attribute 34, 1
  12              		.eabi_attribute 18, 4
  13              		.thumb
  14              		.file	"PID.c"
  15              		.text
  16              	.Ltext0:
  17              		.cfi_sections	.debug_frame
  18              		.section	.text.PID_init,"ax",%progbits
  19              		.align	2
  20              		.global	PID_init
  21              		.thumb
  22              		.thumb_func
  23              		.type	PID_init, %function
  24              	PID_init:
  25              	.LFB63:
  26              		.file 1 ".\\PID.c"
   1:.\PID.c       **** /* ========================================
   2:.\PID.c       ****  *
   3:.\PID.c       ****  * Copyright YOUR COMPANY, THE YEAR
   4:.\PID.c       ****  * All Rights Reserved
   5:.\PID.c       ****  * UNPUBLISHED, LICENSED SOFTWARE.
   6:.\PID.c       ****  *
   7:.\PID.c       ****  * CONFIDENTIAL AND PROPRIETARY INFORMATION
   8:.\PID.c       ****  * WHICH IS THE PROPERTY OF your company.
   9:.\PID.c       ****  *
  10:.\PID.c       ****  * ========================================
  11:.\PID.c       **** */
  12:.\PID.c       **** #include "PID.h"
  13:.\PID.c       **** #include <project.h>
  14:.\PID.c       **** 
  15:.\PID.c       **** struct PIDparameter parameter_;
  16:.\PID.c       **** 
  17:.\PID.c       **** int32 PIDval = 0;
  18:.\PID.c       **** int32 anti_windup_back_calc = 0;
  19:.\PID.c       **** int32 dt = dt_def;
  20:.\PID.c       **** int32 iState = 0;
  21:.\PID.c       **** int32 err = 0;
  22:.\PID.c       **** int32 pre_err = 0;
  23:.\PID.c       **** 
  24:.\PID.c       **** int32 Ki_dt = 0;
  25:.\PID.c       **** int32 Kd_dt = 0;
  26:.\PID.c       **** int32 Kp = 0;
  27:.\PID.c       **** 
  28:.\PID.c       **** void PID_init()
  29:.\PID.c       **** {
  27              		.loc 1 29 0
  28              		.cfi_startproc
ARM GAS  C:\Users\Thomas\AppData\Local\Temp\ccr7ze9F.s 			page 2


  29              		@ args = 0, pretend = 0, frame = 0
  30              		@ frame_needed = 0, uses_anonymous_args = 0
  31              		@ link register save eliminated.
  30:.\PID.c       ****     parameter_.Kp = Kp_def;
  32              		.loc 1 30 0
  33 0000 064B     		ldr	r3, .L2
  34 0002 4FF47A72 		mov	r2, #1000
  35 0006 1A60     		str	r2, [r3]
  31:.\PID.c       ****     parameter_.Ki = Ki_def;
  36              		.loc 1 31 0
  37 0008 0A22     		movs	r2, #10
  38 000a 5A60     		str	r2, [r3, #4]
  32:.\PID.c       ****     parameter_.Kd = Kd_def;
  39              		.loc 1 32 0
  40 000c 0022     		movs	r2, #0
  41 000e 9A60     		str	r2, [r3, #8]
  33:.\PID.c       ****     parameter_.MAX = MAX_def;
  42              		.loc 1 33 0
  43 0010 FF21     		movs	r1, #255
  44 0012 1961     		str	r1, [r3, #16]
  34:.\PID.c       ****     parameter_.MIN = MIN_def;
  45              		.loc 1 34 0
  46 0014 5A61     		str	r2, [r3, #20]
  35:.\PID.c       ****     parameter_.preShift = preShift_def;
  47              		.loc 1 35 0
  48 0016 0322     		movs	r2, #3
  49 0018 9A61     		str	r2, [r3, #24]
  50 001a 7047     		bx	lr
  51              	.L3:
  52              		.align	2
  53              	.L2:
  54 001c 00000000 		.word	parameter_
  55              		.cfi_endproc
  56              	.LFE63:
  57              		.size	PID_init, .-PID_init
  58              		.section	.text.PID,"ax",%progbits
  59              		.align	2
  60              		.global	PID
  61              		.thumb
  62              		.thumb_func
  63              		.type	PID, %function
  64              	PID:
  65              	.LFB64:
  36:.\PID.c       **** }
  37:.\PID.c       **** 
  38:.\PID.c       **** 
  39:.\PID.c       **** 
  40:.\PID.c       **** uint16 PID(const uint16 input, const uint16 plant)
  41:.\PID.c       **** {
  66              		.loc 1 41 0
  67              		.cfi_startproc
  68              		@ args = 0, pretend = 0, frame = 0
  69              		@ frame_needed = 0, uses_anonymous_args = 0
  70              		@ link register save eliminated.
  71              	.LVL0:
  72 0000 30B4     		push	{r4, r5}
  73              		.cfi_def_cfa_offset 8
ARM GAS  C:\Users\Thomas\AppData\Local\Temp\ccr7ze9F.s 			page 3


  74              		.cfi_offset 4, -8
  75              		.cfi_offset 5, -4
  42:.\PID.c       ****     PIDval = 0;
  76              		.loc 1 42 0
  77 0002 194D     		ldr	r5, .L9
  43:.\PID.c       **** 
  44:.\PID.c       ****     err = (((int32)input)<<parameter_.preShift) - (((int32)plant)<<parameter_.preShift);
  78              		.loc 1 44 0
  79 0004 194B     		ldr	r3, .L9+4
  80 0006 9C69     		ldr	r4, [r3, #24]
  81 0008 411A     		subs	r1, r0, r1
  82              	.LVL1:
  83 000a A140     		lsls	r1, r1, r4
  84 000c 6960     		str	r1, [r5, #4]
  45:.\PID.c       ****     
  46:.\PID.c       ****     
  47:.\PID.c       **** 	PIDval = Kp*err; //Proportional calc.
  85              		.loc 1 47 0
  86 000e AB68     		ldr	r3, [r5, #8]
  87 0010 03FB01F2 		mul	r2, r3, r1
  48:.\PID.c       **** 	
  49:.\PID.c       ****     if(Ki_dt != 0)
  88              		.loc 1 49 0
  89 0014 EB68     		ldr	r3, [r5, #12]
  90 0016 33B1     		cbz	r3, .L5
  50:.\PID.c       ****     {
  51:.\PID.c       **** 	    iState += Ki_dt*err + anti_windup_back_calc; //intergral calc and anti windup
  91              		.loc 1 51 0
  92 0018 2846     		mov	r0, r5
  93              	.LVL2:
  94 001a 2D69     		ldr	r5, [r5, #16]
  95 001c 03FB0153 		mla	r3, r3, r1, r5
  96 0020 4569     		ldr	r5, [r0, #20]
  97 0022 2B44     		add	r3, r3, r5
  98 0024 4361     		str	r3, [r0, #20]
  99              	.L5:
  52:.\PID.c       ****     }
  53:.\PID.c       **** 	PIDval += iState; //intergral calc
 100              		.loc 1 53 0
 101 0026 1048     		ldr	r0, .L9
 102 0028 4369     		ldr	r3, [r0, #20]
 103 002a 1344     		add	r3, r3, r2
  54:.\PID.c       **** 	
  55:.\PID.c       **** 	PIDval += Kd_dt*(err-pre_err); //differentiel calc
 104              		.loc 1 55 0
 105 002c 8269     		ldr	r2, [r0, #24]
 106 002e 8A1A     		subs	r2, r1, r2
 107 0030 C569     		ldr	r5, [r0, #28]
 108 0032 05FB0233 		mla	r3, r5, r2, r3
 109 0036 0360     		str	r3, [r0]
  56:.\PID.c       **** 	
  57:.\PID.c       **** 	pre_err = err;
 110              		.loc 1 57 0
 111 0038 8161     		str	r1, [r0, #24]
  58:.\PID.c       **** 	
  59:.\PID.c       ****     anti_windup_back_calc = PIDval;
  60:.\PID.c       ****     
ARM GAS  C:\Users\Thomas\AppData\Local\Temp\ccr7ze9F.s 			page 4


  61:.\PID.c       **** 	if(PIDval > parameter_.MAX<<parameter_.preShift)
 112              		.loc 1 61 0
 113 003a 0C4A     		ldr	r2, .L9+4
 114 003c 1269     		ldr	r2, [r2, #16]
 115 003e A240     		lsls	r2, r2, r4
 116 0040 9342     		cmp	r3, r2
 117 0042 01DD     		ble	.L6
  62:.\PID.c       **** 		PIDval = parameter_.MAX<<parameter_.preShift;
 118              		.loc 1 62 0
 119 0044 0260     		str	r2, [r0]
 120 0046 06E0     		b	.L7
 121              	.L6:
  63:.\PID.c       ****     else if(PIDval < parameter_.MIN<<parameter_.preShift)
 122              		.loc 1 63 0
 123 0048 084A     		ldr	r2, .L9+4
 124 004a 5269     		ldr	r2, [r2, #20]
 125 004c A240     		lsls	r2, r2, r4
 126 004e 9342     		cmp	r3, r2
 127 0050 01DA     		bge	.L7
  64:.\PID.c       ****         PIDval = parameter_.MIN<<parameter_.preShift;
 128              		.loc 1 64 0
 129 0052 0549     		ldr	r1, .L9
 130 0054 0A60     		str	r2, [r1]
 131              	.L7:
  65:.\PID.c       **** 	
  66:.\PID.c       ****     anti_windup_back_calc = PIDval - anti_windup_back_calc;
 132              		.loc 1 66 0
 133 0056 044A     		ldr	r2, .L9
 134 0058 1068     		ldr	r0, [r2]
 135 005a C31A     		subs	r3, r0, r3
 136 005c 1361     		str	r3, [r2, #16]
  67:.\PID.c       ****     
  68:.\PID.c       ****     return ((uint16)(PIDval>>parameter_.preShift));
 137              		.loc 1 68 0
 138 005e 2041     		asrs	r0, r0, r4
  69:.\PID.c       **** }
 139              		.loc 1 69 0
 140 0060 80B2     		uxth	r0, r0
 141 0062 30BC     		pop	{r4, r5}
 142              		.cfi_restore 5
 143              		.cfi_restore 4
 144              		.cfi_def_cfa_offset 0
 145 0064 7047     		bx	lr
 146              	.L10:
 147 0066 00BF     		.align	2
 148              	.L9:
 149 0068 00000000 		.word	.LANCHOR0
 150 006c 00000000 		.word	parameter_
 151              		.cfi_endproc
 152              	.LFE64:
 153              		.size	PID, .-PID
 154              		.section	.text.setPID,"ax",%progbits
 155              		.align	2
 156              		.global	setPID
 157              		.thumb
 158              		.thumb_func
 159              		.type	setPID, %function
ARM GAS  C:\Users\Thomas\AppData\Local\Temp\ccr7ze9F.s 			page 5


 160              	setPID:
 161              	.LFB65:
  70:.\PID.c       **** 
  71:.\PID.c       **** void setPID(const struct PIDparameter * parameter)
  72:.\PID.c       **** {
 162              		.loc 1 72 0
 163              		.cfi_startproc
 164              		@ args = 0, pretend = 0, frame = 0
 165              		@ frame_needed = 0, uses_anonymous_args = 0
 166              		@ link register save eliminated.
 167              	.LVL3:
 168 0000 70B4     		push	{r4, r5, r6}
 169              		.cfi_def_cfa_offset 12
 170              		.cfi_offset 4, -12
 171              		.cfi_offset 5, -8
 172              		.cfi_offset 6, -4
  73:.\PID.c       ****     parameter_ = *parameter;
 173              		.loc 1 73 0
 174 0002 0F4E     		ldr	r6, .L13
 175 0004 3446     		mov	r4, r6
 176 0006 0546     		mov	r5, r0
 177 0008 0FCD     		ldmia	r5!, {r0, r1, r2, r3}
 178              	.LVL4:
 179 000a 0FC4     		stmia	r4!, {r0, r1, r2, r3}
 180 000c 95E80F00 		ldmia	r5, {r0, r1, r2, r3}
 181 0010 84E80F00 		stmia	r4, {r0, r1, r2, r3}
  74:.\PID.c       ****     
  75:.\PID.c       ****     
  76:.\PID.c       ****     
  77:.\PID.c       ****     
  78:.\PID.c       ****     /*
  79:.\PID.c       ****     uint32 MSB_temp = (parameter_.Ki>>31);
  80:.\PID.c       ****     Ki_dt = ((parameter_.Ki<<(parameter_.preShift-parameter_.KShift))||(MSB_temp<<31))*dt;
  81:.\PID.c       ****     MSB_temp = (parameter_.Kd>>31);
  82:.\PID.c       ****     Kd_dt = ((parameter_.Kd<<(parameter_.preShift-parameter_.KShift))||(MSB_temp<<31))/dt;
  83:.\PID.c       ****     MSB_temp = (parameter_.Kp>>31);
  84:.\PID.c       ****     Kp = (parameter_.Kp<<(parameter_.preShift-parameter_.KShift))||(MSB_temp<<31);
  85:.\PID.c       ****     */
  86:.\PID.c       ****     
  87:.\PID.c       ****     Ki_dt = (parameter_.Ki<<(parameter_.preShift-parameter_.KShift))*dt;
 182              		.loc 1 87 0
 183 0014 7268     		ldr	r2, [r6, #4]
 184 0016 B369     		ldr	r3, [r6, #24]
 185 0018 F168     		ldr	r1, [r6, #12]
 186 001a 5B1A     		subs	r3, r3, r1
 187 001c 9A40     		lsls	r2, r2, r3
 188 001e 0949     		ldr	r1, .L13+4
 189 0020 0C68     		ldr	r4, [r1]
 190 0022 04FB02F1 		mul	r1, r4, r2
 191 0026 0848     		ldr	r0, .L13+8
 192 0028 C160     		str	r1, [r0, #12]
  88:.\PID.c       ****     Kd_dt = (parameter_.Kd<<(parameter_.preShift-parameter_.KShift))/dt;
 193              		.loc 1 88 0
 194 002a B268     		ldr	r2, [r6, #8]
 195 002c 9A40     		lsls	r2, r2, r3
 196 002e 92FBF4F2 		sdiv	r2, r2, r4
 197 0032 C261     		str	r2, [r0, #28]
ARM GAS  C:\Users\Thomas\AppData\Local\Temp\ccr7ze9F.s 			page 6


  89:.\PID.c       ****     Kp = parameter_.Kp<<(parameter_.preShift-parameter_.KShift);
 198              		.loc 1 89 0
 199 0034 3268     		ldr	r2, [r6]
 200 0036 02FA03F3 		lsl	r3, r2, r3
 201 003a 8360     		str	r3, [r0, #8]
  90:.\PID.c       ****     
  91:.\PID.c       **** }
 202              		.loc 1 91 0
 203 003c 70BC     		pop	{r4, r5, r6}
 204              		.cfi_restore 6
 205              		.cfi_restore 5
 206              		.cfi_restore 4
 207              		.cfi_def_cfa_offset 0
 208              	.LVL5:
 209 003e 7047     		bx	lr
 210              	.L14:
 211              		.align	2
 212              	.L13:
 213 0040 00000000 		.word	parameter_
 214 0044 00000000 		.word	.LANCHOR1
 215 0048 00000000 		.word	.LANCHOR0
 216              		.cfi_endproc
 217              	.LFE65:
 218              		.size	setPID, .-setPID
 219              		.global	Kp
 220              		.global	Kd_dt
 221              		.global	Ki_dt
 222              		.global	pre_err
 223              		.global	err
 224              		.global	iState
 225              		.global	dt
 226              		.global	anti_windup_back_calc
 227              		.global	PIDval
 228              		.comm	parameter_,32,4
 229              		.data
 230              		.align	2
 231              		.set	.LANCHOR1,. + 0
 232              		.type	dt, %object
 233              		.size	dt, 4
 234              	dt:
 235 0000 0A000000 		.word	10
 236              		.bss
 237              		.align	2
 238              		.set	.LANCHOR0,. + 0
 239              		.type	PIDval, %object
 240              		.size	PIDval, 4
 241              	PIDval:
 242 0000 00000000 		.space	4
 243              		.type	err, %object
 244              		.size	err, 4
 245              	err:
 246 0004 00000000 		.space	4
 247              		.type	Kp, %object
 248              		.size	Kp, 4
 249              	Kp:
 250 0008 00000000 		.space	4
 251              		.type	Ki_dt, %object
ARM GAS  C:\Users\Thomas\AppData\Local\Temp\ccr7ze9F.s 			page 7


 252              		.size	Ki_dt, 4
 253              	Ki_dt:
 254 000c 00000000 		.space	4
 255              		.type	anti_windup_back_calc, %object
 256              		.size	anti_windup_back_calc, 4
 257              	anti_windup_back_calc:
 258 0010 00000000 		.space	4
 259              		.type	iState, %object
 260              		.size	iState, 4
 261              	iState:
 262 0014 00000000 		.space	4
 263              		.type	pre_err, %object
 264              		.size	pre_err, 4
 265              	pre_err:
 266 0018 00000000 		.space	4
 267              		.type	Kd_dt, %object
 268              		.size	Kd_dt, 4
 269              	Kd_dt:
 270 001c 00000000 		.space	4
 271              		.text
 272              	.Letext0:
 273              		.file 2 "c:\\program files (x86)\\cypress\\psoc creator\\3.3\\psoc creator\\import\\gnu\\arm\\4.9.
 274              		.file 3 "c:\\program files (x86)\\cypress\\psoc creator\\3.3\\psoc creator\\import\\gnu\\arm\\4.9.
 275              		.file 4 "Generated_Source\\PSoC5/cytypes.h"
 276              		.file 5 ".\\PID.h"
 277              		.file 6 "Generated_Source\\PSoC5/core_cm3.h"