ARM GAS  C:\Users\Thomas\AppData\Local\Temp\ccZtRC7f.s 			page 1


   1              		.syntax unified
   2              		.cpu cortex-m3
   3              		.fpu softvfp
   4              		.eabi_attribute 20, 1
   5              		.eabi_attribute 21, 1
   6              		.eabi_attribute 23, 3
   7              		.eabi_attribute 24, 1
   8              		.eabi_attribute 25, 1
   9              		.eabi_attribute 26, 1
  10              		.eabi_attribute 30, 1
  11              		.eabi_attribute 34, 1
  12              		.eabi_attribute 18, 4
  13              		.thumb
  14              		.file	"RPMSensor.c"
  15              		.text
  16              	.Ltext0:
  17              		.cfi_sections	.debug_frame
  18              		.section	.text.RPM,"ax",%progbits
  19              		.align	2
  20              		.global	RPM
  21              		.thumb
  22              		.thumb_func
  23              		.type	RPM, %function
  24              	RPM:
  25              	.LFB63:
  26              		.file 1 ".\\RPMSensor.c"
   1:.\RPMSensor.c **** /* ========================================
   2:.\RPMSensor.c ****  *
   3:.\RPMSensor.c ****  * Copyright YOUR COMPANY, THE YEAR
   4:.\RPMSensor.c ****  * All Rights Reserved
   5:.\RPMSensor.c ****  * UNPUBLISHED, LICENSED SOFTWARE.
   6:.\RPMSensor.c ****  *
   7:.\RPMSensor.c ****  * CONFIDENTIAL AND PROPRIETARY INFORMATION
   8:.\RPMSensor.c ****  * WHICH IS THE PROPERTY OF your company.
   9:.\RPMSensor.c ****  *
  10:.\RPMSensor.c ****  * ========================================
  11:.\RPMSensor.c **** */
  12:.\RPMSensor.c **** #include "RPMSensor.h"
  13:.\RPMSensor.c **** 
  14:.\RPMSensor.c **** uint16 RPM_temp = 0;
  15:.\RPMSensor.c **** char RPM_reset=0;
  16:.\RPMSensor.c **** 
  17:.\RPMSensor.c **** CY_ISR_PROTO(RPM);
  18:.\RPMSensor.c **** 
  19:.\RPMSensor.c **** 
  20:.\RPMSensor.c **** CY_ISR(RPM)
  21:.\RPMSensor.c **** {
  27              		.loc 1 21 0
  28              		.cfi_startproc
  29              		@ args = 0, pretend = 0, frame = 0
  30              		@ frame_needed = 0, uses_anonymous_args = 0
  31 0000 10B5     		push	{r4, lr}
  32              		.cfi_def_cfa_offset 8
  33              		.cfi_offset 4, -8
  34              		.cfi_offset 14, -4
  22:.\RPMSensor.c **** 
  23:.\RPMSensor.c ****     uint8 STATUS = Timer_RPM_STATUS;
ARM GAS  C:\Users\Thomas\AppData\Local\Temp\ccZtRC7f.s 			page 2


  35              		.loc 1 23 0
  36 0002 184B     		ldr	r3, .L8
  37 0004 1B78     		ldrb	r3, [r3]	@ zero_extendqisi2
  38 0006 DBB2     		uxtb	r3, r3
  39              	.LVL0:
  24:.\RPMSensor.c ****     
  25:.\RPMSensor.c ****     if((STATUS&(1<<1)))//capture
  40              		.loc 1 25 0
  41 0008 13F0020F 		tst	r3, #2
  42 000c 16D0     		beq	.L2
  43              	.LBB2:
  26:.\RPMSensor.c ****     {
  27:.\RPMSensor.c ****         uint16 temp = Timer_RPM_ReadCapture();
  44              		.loc 1 27 0
  45 000e FFF7FEFF 		bl	Timer_RPM_ReadCapture
  46              	.LVL1:
  47 0012 0446     		mov	r4, r0
  48              	.LVL2:
  28:.\RPMSensor.c ****         uint16 temp2 = 0;
  29:.\RPMSensor.c ****         if(Timer_RPM_STATUS&(1<<3))
  49              		.loc 1 29 0
  50 0014 134B     		ldr	r3, .L8
  51 0016 1B78     		ldrb	r3, [r3]	@ zero_extendqisi2
  52 0018 13F0080F 		tst	r3, #8
  53 001c 02D0     		beq	.L6
  30:.\RPMSensor.c ****             temp2 = Timer_RPM_ReadCapture();
  54              		.loc 1 30 0
  55 001e FFF7FEFF 		bl	Timer_RPM_ReadCapture
  56              	.LVL3:
  57 0022 00E0     		b	.L3
  58              	.LVL4:
  59              	.L6:
  28:.\RPMSensor.c ****         uint16 temp2 = 0;
  60              		.loc 1 28 0
  61 0024 0020     		movs	r0, #0
  62              	.LVL5:
  63              	.L3:
  31:.\RPMSensor.c ****             
  32:.\RPMSensor.c ****         
  33:.\RPMSensor.c ****         RPM_reset=0;
  64              		.loc 1 33 0
  65 0026 0022     		movs	r2, #0
  66 0028 0F4B     		ldr	r3, .L8+4
  67 002a 1A70     		strb	r2, [r3]
  34:.\RPMSensor.c ****         
  35:.\RPMSensor.c ****         if(temp2 != 0)
  68              		.loc 1 35 0
  69 002c 90B1     		cbz	r0, .L4
  36:.\RPMSensor.c ****         {
  37:.\RPMSensor.c ****             RPM_temp = ((uint16)(60000/(temp-temp2)));
  70              		.loc 1 37 0
  71 002e 241A     		subs	r4, r4, r0
  72              	.LVL6:
  73 0030 4EF66020 		movw	r0, #60000
  74              	.LVL7:
  75 0034 90FBF4F4 		sdiv	r4, r0, r4
  76 0038 5C80     		strh	r4, [r3, #2]	@ movhi
ARM GAS  C:\Users\Thomas\AppData\Local\Temp\ccZtRC7f.s 			page 3


  77 003a 0BE0     		b	.L4
  78              	.LVL8:
  79              	.L2:
  80              	.LBE2:
  38:.\RPMSensor.c ****         }
  39:.\RPMSensor.c ****         else
  40:.\RPMSensor.c ****         {
  41:.\RPMSensor.c ****             //RPM_temp=0;
  42:.\RPMSensor.c ****         }
  43:.\RPMSensor.c ****         
  44:.\RPMSensor.c ****     }
  45:.\RPMSensor.c ****     else if((STATUS&(1<<0)))//TC
  81              		.loc 1 45 0
  82 003c 13F0010F 		tst	r3, #1
  83 0040 08D0     		beq	.L4
  46:.\RPMSensor.c ****     {
  47:.\RPMSensor.c ****         
  48:.\RPMSensor.c ****         if(RPM_reset)
  84              		.loc 1 48 0
  85 0042 094B     		ldr	r3, .L8+4
  86              	.LVL9:
  87 0044 1B78     		ldrb	r3, [r3]	@ zero_extendqisi2
  88 0046 13B1     		cbz	r3, .L5
  49:.\RPMSensor.c ****         {
  50:.\RPMSensor.c ****             RPM_temp=0;
  89              		.loc 1 50 0
  90 0048 0022     		movs	r2, #0
  91 004a 074B     		ldr	r3, .L8+4
  92 004c 5A80     		strh	r2, [r3, #2]	@ movhi
  93              	.L5:
  51:.\RPMSensor.c ****         }
  52:.\RPMSensor.c ****         RPM_reset=1;
  94              		.loc 1 52 0
  95 004e 0122     		movs	r2, #1
  96 0050 054B     		ldr	r3, .L8+4
  97 0052 1A70     		strb	r2, [r3]
  98              	.L4:
  53:.\RPMSensor.c ****         
  54:.\RPMSensor.c ****     }
  55:.\RPMSensor.c ****     Timer_RPM_WriteCounter(6000u);
  99              		.loc 1 55 0
 100 0054 41F27070 		movw	r0, #6000
 101 0058 FFF7FEFF 		bl	Timer_RPM_WriteCounter
 102              	.LVL10:
  56:.\RPMSensor.c ****     Timer_RPM_ClearFIFO();
 103              		.loc 1 56 0
 104 005c FFF7FEFF 		bl	Timer_RPM_ClearFIFO
 105              	.LVL11:
 106 0060 10BD     		pop	{r4, pc}
 107              	.L9:
 108 0062 00BF     		.align	2
 109              	.L8:
 110 0064 6D640040 		.word	1073767533
 111 0068 00000000 		.word	.LANCHOR0
 112              		.cfi_endproc
 113              	.LFE63:
 114              		.size	RPM, .-RPM
ARM GAS  C:\Users\Thomas\AppData\Local\Temp\ccZtRC7f.s 			page 4


 115              		.section	.text.RPMSensor_init,"ax",%progbits
 116              		.align	2
 117              		.global	RPMSensor_init
 118              		.thumb
 119              		.thumb_func
 120              		.type	RPMSensor_init, %function
 121              	RPMSensor_init:
 122              	.LFB64:
  57:.\RPMSensor.c **** }
  58:.\RPMSensor.c **** 
  59:.\RPMSensor.c **** 
  60:.\RPMSensor.c **** void RPMSensor_init()
  61:.\RPMSensor.c **** {
 123              		.loc 1 61 0
 124              		.cfi_startproc
 125              		@ args = 0, pretend = 0, frame = 0
 126              		@ frame_needed = 0, uses_anonymous_args = 0
 127 0000 08B5     		push	{r3, lr}
 128              		.cfi_def_cfa_offset 8
 129              		.cfi_offset 3, -8
 130              		.cfi_offset 14, -4
  62:.\RPMSensor.c ****     RPM_isr_StartEx(RPM);
 131              		.loc 1 62 0
 132 0002 0448     		ldr	r0, .L12
 133 0004 FFF7FEFF 		bl	RPM_isr_StartEx
 134              	.LVL12:
  63:.\RPMSensor.c ****     Timer_RPM_Start();
 135              		.loc 1 63 0
 136 0008 FFF7FEFF 		bl	Timer_RPM_Start
 137              	.LVL13:
  64:.\RPMSensor.c ****     Clock_4_Start();
 138              		.loc 1 64 0
 139 000c FFF7FEFF 		bl	Clock_4_Start
 140              	.LVL14:
 141 0010 08BD     		pop	{r3, pc}
 142              	.L13:
 143 0012 00BF     		.align	2
 144              	.L12:
 145 0014 00000000 		.word	RPM
 146              		.cfi_endproc
 147              	.LFE64:
 148              		.size	RPMSensor_init, .-RPMSensor_init
 149              		.section	.text.RPMSensor_getValue,"ax",%progbits
 150              		.align	2
 151              		.global	RPMSensor_getValue
 152              		.thumb
 153              		.thumb_func
 154              		.type	RPMSensor_getValue, %function
 155              	RPMSensor_getValue:
 156              	.LFB65:
  65:.\RPMSensor.c **** }
  66:.\RPMSensor.c **** 
  67:.\RPMSensor.c **** uint16 RPMSensor_getValue()
  68:.\RPMSensor.c **** {
 157              		.loc 1 68 0
 158              		.cfi_startproc
 159              		@ args = 0, pretend = 0, frame = 0
ARM GAS  C:\Users\Thomas\AppData\Local\Temp\ccZtRC7f.s 			page 5


 160              		@ frame_needed = 0, uses_anonymous_args = 0
 161              		@ link register save eliminated.
  69:.\RPMSensor.c ****     return RPM_temp;   
  70:.\RPMSensor.c **** }
 162              		.loc 1 70 0
 163 0000 014B     		ldr	r3, .L15
 164 0002 5888     		ldrh	r0, [r3, #2]
 165 0004 7047     		bx	lr
 166              	.L16:
 167 0006 00BF     		.align	2
 168              	.L15:
 169 0008 00000000 		.word	.LANCHOR0
 170              		.cfi_endproc
 171              	.LFE65:
 172              		.size	RPMSensor_getValue, .-RPMSensor_getValue
 173              		.section	.text.RPMSensor_getSpeed,"ax",%progbits
 174              		.align	2
 175              		.global	RPMSensor_getSpeed
 176              		.thumb
 177              		.thumb_func
 178              		.type	RPMSensor_getSpeed, %function
 179              	RPMSensor_getSpeed:
 180              	.LFB66:
  71:.\RPMSensor.c **** 
  72:.\RPMSensor.c **** uint16 RPMSensor_getSpeed()
  73:.\RPMSensor.c **** {
 181              		.loc 1 73 0
 182              		.cfi_startproc
 183              		@ args = 0, pretend = 0, frame = 0
 184              		@ frame_needed = 0, uses_anonymous_args = 0
 185 0000 08B5     		push	{r3, lr}
 186              		.cfi_def_cfa_offset 8
 187              		.cfi_offset 3, -8
 188              		.cfi_offset 14, -4
  74:.\RPMSensor.c ****     return RPMSensor_getValue();
 189              		.loc 1 74 0
 190 0002 FFF7FEFF 		bl	RPMSensor_getValue
 191              	.LVL15:
  75:.\RPMSensor.c **** }
 192              		.loc 1 75 0
 193 0006 08BD     		pop	{r3, pc}
 194              		.cfi_endproc
 195              	.LFE66:
 196              		.size	RPMSensor_getSpeed, .-RPMSensor_getSpeed
 197              		.global	RPM_reset
 198              		.global	RPM_temp
 199              		.bss
 200              		.align	1
 201              		.set	.LANCHOR0,. + 0
 202              		.type	RPM_reset, %object
 203              		.size	RPM_reset, 1
 204              	RPM_reset:
 205 0000 00       		.space	1
 206 0001 00       		.space	1
 207              		.type	RPM_temp, %object
 208              		.size	RPM_temp, 2
 209              	RPM_temp:
ARM GAS  C:\Users\Thomas\AppData\Local\Temp\ccZtRC7f.s 			page 6


 210 0002 0000     		.space	2
 211              		.text
 212              	.Letext0:
 213              		.file 2 "c:\\program files (x86)\\cypress\\psoc creator\\3.3\\psoc creator\\import\\gnu\\arm\\4.9.
 214              		.file 3 "c:\\program files (x86)\\cypress\\psoc creator\\3.3\\psoc creator\\import\\gnu\\arm\\4.9.
 215              		.file 4 "Generated_Source\\PSoC5/cytypes.h"
 216              		.file 5 "Generated_Source\\PSoC5/core_cm3.h"
 217              		.file 6 "Generated_Source\\PSoC5/Timer_RPM.h"
 218              		.file 7 "Generated_Source\\PSoC5/RPM_isr.h"
 219              		.file 8 "Generated_Source\\PSoC5/Clock_4.h"