ARM GAS  C:\Users\Thomas\AppData\Local\Temp\ccwbeTmj.s 			page 1


   1              		.syntax unified
   2              		.cpu cortex-m3
   3              		.fpu softvfp
   4              		.eabi_attribute 20, 1
   5              		.eabi_attribute 21, 1
   6              		.eabi_attribute 23, 3
   7              		.eabi_attribute 24, 1
   8              		.eabi_attribute 25, 1
   9              		.eabi_attribute 26, 1
  10              		.eabi_attribute 30, 1
  11              		.eabi_attribute 34, 1
  12              		.eabi_attribute 18, 4
  13              		.thumb
  14              		.file	"Speed_O_meter.c"
  15              		.text
  16              	.Ltext0:
  17              		.cfi_sections	.debug_frame
  18              		.section	.text.Speedo_Init,"ax",%progbits
  19              		.align	2
  20              		.global	Speedo_Init
  21              		.thumb
  22              		.thumb_func
  23              		.type	Speedo_Init, %function
  24              	Speedo_Init:
  25              	.LFB63:
  26              		.file 1 ".\\Speed_O_meter.c"
   1:.\Speed_O_meter.c **** #include "Speed_O_meter.h"
   2:.\Speed_O_meter.c **** 
   3:.\Speed_O_meter.c **** // The following constant is the distance between 
   4:.\Speed_O_meter.c **** // the spokes of the wheel (measured in mm)
   5:.\Speed_O_meter.c **** #define DISTANCE 1000
   6:.\Speed_O_meter.c **** 
   7:.\Speed_O_meter.c **** float speed = 0;
   8:.\Speed_O_meter.c **** 
   9:.\Speed_O_meter.c **** // A 32-bit timer measures the amount of ticks since the
  10:.\Speed_O_meter.c **** // last rising-edge from the sensor (1 tick = 1 ms)
  11:.\Speed_O_meter.c **** 
  12:.\Speed_O_meter.c **** 
  13:.\Speed_O_meter.c **** void Speedo_Init()
  14:.\Speed_O_meter.c **** {
  27              		.loc 1 14 0
  28              		.cfi_startproc
  29              		@ args = 0, pretend = 0, frame = 0
  30              		@ frame_needed = 0, uses_anonymous_args = 0
  31 0000 08B5     		push	{r3, lr}
  32              		.cfi_def_cfa_offset 8
  33              		.cfi_offset 3, -8
  34              		.cfi_offset 14, -4
  15:.\Speed_O_meter.c ****     Timer_Speedometer_Start();
  35              		.loc 1 15 0
  36 0002 FFF7FEFF 		bl	Timer_Speedometer_Start
  37              	.LVL0:
  16:.\Speed_O_meter.c ****     Speedometer_isr_Enable();
  38              		.loc 1 16 0
  39 0006 FFF7FEFF 		bl	Speedometer_isr_Enable
  40              	.LVL1:
  41 000a 08BD     		pop	{r3, pc}
ARM GAS  C:\Users\Thomas\AppData\Local\Temp\ccwbeTmj.s 			page 2


  42              		.cfi_endproc
  43              	.LFE63:
  44              		.size	Speedo_Init, .-Speedo_Init
  45              		.section	.text.Speedo_GetSpeed,"ax",%progbits
  46              		.align	2
  47              		.global	Speedo_GetSpeed
  48              		.thumb
  49              		.thumb_func
  50              		.type	Speedo_GetSpeed, %function
  51              	Speedo_GetSpeed:
  52              	.LFB64:
  17:.\Speed_O_meter.c **** }
  18:.\Speed_O_meter.c **** 
  19:.\Speed_O_meter.c **** float Speedo_GetSpeed()
  20:.\Speed_O_meter.c **** {
  53              		.loc 1 20 0
  54              		.cfi_startproc
  55              		@ args = 0, pretend = 0, frame = 0
  56              		@ frame_needed = 0, uses_anonymous_args = 0
  57              		@ link register save eliminated.
  21:.\Speed_O_meter.c ****     return speed;   
  22:.\Speed_O_meter.c **** }
  58              		.loc 1 22 0
  59 0000 014B     		ldr	r3, .L4
  60 0002 1868     		ldr	r0, [r3]	@ float
  61 0004 7047     		bx	lr
  62              	.L5:
  63 0006 00BF     		.align	2
  64              	.L4:
  65 0008 00000000 		.word	.LANCHOR0
  66              		.cfi_endproc
  67              	.LFE64:
  68              		.size	Speedo_GetSpeed, .-Speedo_GetSpeed
  69              		.global	__aeabi_i2f
  70              		.section	.text.RPM_isr,"ax",%progbits
  71              		.align	2
  72              		.global	RPM_isr
  73              		.thumb
  74              		.thumb_func
  75              		.type	RPM_isr, %function
  76              	RPM_isr:
  77              	.LFB65:
  23:.\Speed_O_meter.c **** 
  24:.\Speed_O_meter.c **** CY_ISR(RPM_isr)
  25:.\Speed_O_meter.c **** {
  78              		.loc 1 25 0
  79              		.cfi_startproc
  80              		@ args = 0, pretend = 0, frame = 0
  81              		@ frame_needed = 0, uses_anonymous_args = 0
  82 0000 08B5     		push	{r3, lr}
  83              		.cfi_def_cfa_offset 8
  84              		.cfi_offset 3, -8
  85              		.cfi_offset 14, -4
  26:.\Speed_O_meter.c ****     uint16 time;
  27:.\Speed_O_meter.c ****     
  28:.\Speed_O_meter.c ****     time = Timer_Speedometer_ReadCapture();
  86              		.loc 1 28 0
ARM GAS  C:\Users\Thomas\AppData\Local\Temp\ccwbeTmj.s 			page 3


  87 0002 FFF7FEFF 		bl	Timer_Speedometer_ReadCapture
  88              	.LVL2:
  29:.\Speed_O_meter.c ****     speed = DISTANCE/time;
  89              		.loc 1 29 0
  90 0006 4FF47A73 		mov	r3, #1000
  91 000a 93FBF0F0 		sdiv	r0, r3, r0
  92              	.LVL3:
  93 000e FFF7FEFF 		bl	__aeabi_i2f
  94              	.LVL4:
  95 0012 044B     		ldr	r3, .L8
  96 0014 1860     		str	r0, [r3]	@ float
  30:.\Speed_O_meter.c ****     
  31:.\Speed_O_meter.c ****     Timer_Speedometer_WriteCounter(0);
  97              		.loc 1 31 0
  98 0016 0020     		movs	r0, #0
  99 0018 FFF7FEFF 		bl	Timer_Speedometer_WriteCounter
 100              	.LVL5:
  32:.\Speed_O_meter.c ****     Timer_Speedometer_ClearFIFO();
 101              		.loc 1 32 0
 102 001c FFF7FEFF 		bl	Timer_Speedometer_ClearFIFO
 103              	.LVL6:
 104 0020 08BD     		pop	{r3, pc}
 105              	.L9:
 106 0022 00BF     		.align	2
 107              	.L8:
 108 0024 00000000 		.word	.LANCHOR0
 109              		.cfi_endproc
 110              	.LFE65:
 111              		.size	RPM_isr, .-RPM_isr
 112              		.global	speed
 113              		.bss
 114              		.align	2
 115              		.set	.LANCHOR0,. + 0
 116              		.type	speed, %object
 117              		.size	speed, 4
 118              	speed:
 119 0000 00000000 		.space	4
 120              		.text
 121              	.Letext0:
 122              		.file 2 "c:\\program files (x86)\\cypress\\psoc creator\\3.3\\psoc creator\\import\\gnu\\arm\\4.9.
 123              		.file 3 "c:\\program files (x86)\\cypress\\psoc creator\\3.3\\psoc creator\\import\\gnu\\arm\\4.9.
 124              		.file 4 "Generated_Source\\PSoC5/cytypes.h"
 125              		.file 5 "Generated_Source\\PSoC5/core_cm3.h"
 126              		.file 6 "Generated_Source\\PSoC5/Timer_Speedometer.h"
 127              		.file 7 "Generated_Source\\PSoC5/Speedometer_isr.h"